 PhysXCooking_32

 Timestamp is 5d5dcd2c (Thu Aug 22 02:01:00 2019)

 Preferred load address is 10000000

 Start         Length     Name                   Class
 0001:00000000 00001320H .text$di                CODE
 0001:00001320 0003bd84H .text$mn                CODE
 0002:00000000 00000128H .idata$5                DATA
 0002:00000128 00000004H .00cfg                  DATA
 0002:0000012c 00000004H .CRT$XCA                DATA
 0002:00000130 000000f8H .CRT$XCU                DATA
 0002:00000228 00000004H .CRT$XCZ                DATA
 0002:0000022c 00000004H .CRT$XIA                DATA
 0002:00000230 00000004H .CRT$XIZ                DATA
 0002:00000234 00000004H .CRT$XPA                DATA
 0002:00000238 00000004H .CRT$XPZ                DATA
 0002:0000023c 00000004H .CRT$XTA                DATA
 0002:00000240 00000010H .CRT$XTZ                DATA
 0002:00000244 00000000H .gfids$y                DATA
 0002:00000250 00004374H .rdata                  DATA
 0002:000045c4 0000004cH .rdata$r                DATA
 0002:00004610 00000008H .rdata$sxdata           DATA
 0002:00004618 00000388H .rdata$zzzdbg           DATA
 0002:000049a0 00000004H .rtc$IAA                DATA
 0002:000049a4 00000050H .rtc$IMZ                DATA
 0002:000049f4 00000004H .rtc$IZZ                DATA
 0002:000049f8 00000004H .rtc$TAA                DATA
 0002:000049fc 00000050H .rtc$TMZ                DATA
 0002:00004a4c 00000004H .rtc$TZZ                DATA
 0002:00004a50 0000009cH .xdata$x                DATA
 0002:00004aec 00000040H .didat$2                DATA
 0002:00004b2c 00000020H .didat$3                DATA
 0002:00004b4c 00000110H .didat$4                DATA
 0002:00004c5c 00000cfcH .didat$6                DATA
 0002:00005958 00000118H .didat$7                DATA
 0002:00005a70 00001cb8H .edata                  DATA
 0002:00007728 0000003cH .idata$2                DATA
 0002:00007764 00000014H .idata$3                DATA
 0002:00007778 00000128H .idata$4                DATA
 0002:000078a0 00000514H .idata$6                DATA
 0003:00000000 00000038H .data                   DATA
 0003:00000038 00000254H .data$r                 DATA
 0003:0000028c 00000114H .didat$5                DATA
 0003:000003a0 00000920H .bss                    DATA
 0004:00000000 000000a0H .rsrc$01                DATA
 0004:000000a0 000004b0H .rsrc$02                DATA

  Address         Publics by Value              Rva+Base       Lib:Object

 0000:00000000       ___guard_longjmp_table     00000000     <absolute>
 0000:00000000       ___guard_longjmp_count     00000000     <absolute>
 0000:00000000       ___dynamic_value_reloc_table 00000000     <absolute>
 0000:00000000       ___AbsoluteZero            00000000     <absolute>
 0000:00000000       ___enclave_config          00000000     <absolute>
 0000:00000000       ___hybrid_code_map         00000000     <absolute>
 0000:00000000       ___guard_iat_table         00000000     <absolute>
 0000:00000000       ___guard_fids_count        00000000     <absolute>
 0000:00000000       ___guard_fids_table        00000000     <absolute>
 0000:00000000       ___hybrid_code_map_count   00000000     <absolute>
 0000:00000000       ___hybrid_auxiliary_iat    00000000     <absolute>
 0000:00000000       ___volatile_metadata       00000000     <absolute>
 0000:00000000       ___guard_iat_count         00000000     <absolute>
 0000:00000002       ___safe_se_handler_count   00000002     <absolute>
 0000:00000100       ___guard_flags             00000100     <absolute>
 0000:00000000       ___ImageBase               10000000     <linker-defined>
 0001:00001320       ?ComputeNbBoundaryEdges@AdjTriangle@physx@@QBEIXZ 10002320 f   Adjacencies.obj
 0001:000013b0       ?ComputeNbNeighbors@AdjTriangle@physx@@QBEIXZ 100023b0 f   Adjacencies.obj
 0001:00001440       ?HasNeighbor@AdjTriangle@physx@@QBE_NIPAI@Z 10002440 f   Adjacencies.obj
 0001:00001530       ?Flip@AdjTriangle@physx@@QAEXXZ 10002530 f   Adjacencies.obj
 0001:00001560       ??0Adjacencies@physx@@QAE@XZ 10002560 f   Adjacencies.obj
 0001:00001590       ??1Adjacencies@physx@@QAE@XZ 10002590 f   Adjacencies.obj
 0001:000015d0       ?Load@Adjacencies@physx@@QAE_NAAVPxInputStream@2@@Z 100025d0 f   Adjacencies.obj
 0001:000016d0       ?ComputeNbBoundaryEdges@Adjacencies@physx@@QBEIXZ 100026d0 f   Adjacencies.obj
 0001:00001730       ?GetBoundaryVertices@Adjacencies@physx@@QBE_NIPA_NPBU?$TriangleT@I@Gu@2@@Z 10002730 f   Adjacencies.obj
 0001:00001940       ?MakeLastRef@Adjacencies@physx@@QAE_NAAVAdjTriangle@2@IPAU?$TriangleT@I@Gu@2@@Z 10002940 f   Adjacencies.obj
 0001:00001bc0       ?AssignNewEdgeCode@Adjacencies@physx@@AAEXIE@Z 10002bc0 f   Adjacencies.obj
 0001:00001c40       ??0AdjacenciesBuilder@physx@@QAE@XZ 10002c40 f   Adjacencies.obj
 0001:00001c60       ??1AdjacenciesBuilder@physx@@QAE@XZ 10002c60 f   Adjacencies.obj
 0001:00001c80       ?Init@AdjacenciesBuilder@physx@@QAE_NABUADJACENCIESCREATE@2@@Z 10002c80 f   Adjacencies.obj
 0001:00002940       ??$?_UI@@YAPAXIV?$ReflectionAllocator@I@shdfnd@physx@@PBDH@Z 10003940 f i Adjacencies.obj
 0001:00002960       ??$?_UV?$ReflectionAllocator@VAdjEdge@@@shdfnd@physx@@@UserAllocated@shdfnd@physx@@SAPAXIV?$ReflectionAllocator@VAdjEdge@@@12@PBDH@Z 10003960 f i Adjacencies.obj
 0001:00002980       ??$?_UV?$ReflectionAllocator@VAdjTriangle@physx@@@shdfnd@physx@@@UserAllocated@shdfnd@physx@@SAPAXIV?$ReflectionAllocator@VAdjTriangle@physx@@@12@PBDH@Z 10003980 f i Adjacencies.obj
 0001:000029a0       ??$swap@I@shdfnd@physx@@YAXAAI0@Z 100039a0 f i Adjacencies.obj
 0001:000029d0       ??0?$ReflectionAllocator@I@shdfnd@physx@@QAE@PBD@Z 100039d0 f i Adjacencies.obj
 0001:000029e0       ??0?$ReflectionAllocator@VAdjEdge@@@shdfnd@physx@@QAE@PBD@Z 100039e0 f i Adjacencies.obj
 0001:000029f0       ??0?$ReflectionAllocator@VAdjTriangle@physx@@@shdfnd@physx@@QAE@PBD@Z 100039f0 f i Adjacencies.obj
 0001:00002a00       ??0?$TriangleT@I@Gu@physx@@QAE@XZ 10003a00 f i Adjacencies.obj
 0001:00002a10       ??0AdjEdge@@QAE@XZ         10003a10 f i Adjacencies.obj
 0001:00002a20       ??0AdjTriangle@physx@@QAE@XZ 10003a20 f i Adjacencies.obj
 0001:00002a30       ??0Allocator@shdfnd@physx@@QAE@PBD@Z 10003a30 f i Adjacencies.obj
 0001:00002a40       ??0EDGELISTCREATE@Gu@physx@@QAE@XZ 10003a40 f i Adjacencies.obj
 0001:00002aa0       ??0NonTrackingAllocator@shdfnd@physx@@QAE@PBD@Z 10003aa0 f i Adjacencies.obj
 0001:00002ab0       ??0PxFoundation@physx@@QAE@ABV01@@Z 10003ab0 f i Adjacencies.obj
 0001:00002ad0       ??0PxFoundation@physx@@QAE@XZ 10003ad0 f i Adjacencies.obj
 0001:00002af0       ??1AdjEdge@@QAE@XZ         10003af0 f i Adjacencies.obj
 0001:00002b00       ??1AdjTriangle@physx@@QAE@XZ 10003b00 f i Adjacencies.obj
 0001:00002b10       ??1PxFoundation@physx@@MAE@XZ 10003b10 f i Adjacencies.obj
 0001:00002b30       ??3UserAllocated@shdfnd@physx@@SAXPAX@Z 10003b30 f i Adjacencies.obj
 0001:00002b50       ??4Allocator@shdfnd@physx@@QAEAAV012@$$QAV012@@Z 10003b50 f i Adjacencies.obj
 0001:00002b60       ??4Allocator@shdfnd@physx@@QAEAAV012@ABV012@@Z 10003b60 f i Adjacencies.obj
 0001:00002b70       ??4MutexImpl@shdfnd@physx@@QAEAAV012@ABV012@@Z 10003b70 f i Adjacencies.obj
 0001:00002b80       ??4PxFoundation@physx@@QAEAAV01@ABV01@@Z 10003b80 f i Adjacencies.obj
 0001:00002b90       ??_EAdjEdge@@QAEPAXI@Z     10003b90 f i Adjacencies.obj
 0001:00002c40       ??_EAdjTriangle@physx@@QAEPAXI@Z 10003c40 f i Adjacencies.obj
 0001:00002cf0       ??_EPxFoundation@physx@@MAEPAXI@Z 10003cf0 f i Adjacencies.obj
 0001:00002d70       ??_FAllocator@shdfnd@physx@@QAEXXZ 10003d70 f i Adjacencies.obj
 0001:00002d90       ??_FNamedAllocator@shdfnd@physx@@QAEXXZ 10003d90 f i Adjacencies.obj
 0001:00002db0       ??_GPxFoundation@physx@@MAEPAXI@Z 10003db0 f i Adjacencies.obj
 0001:00002de0       ??_H@YGXPAXIIP6EPAX0@Z@Z   10003de0 f i Adjacencies.obj
 0001:00002e30       ??_I@YGXPAXIIP6EX0@Z@Z     10003e30 f i Adjacencies.obj
 0001:00002e90       ??_VUserAllocated@shdfnd@physx@@SAXPAX@Z 10003e90 f i Adjacencies.obj
 0001:00002eb0       ?GetNbHits@RadixSort@Cm@physx@@QBEIXZ 10003eb0 f i Adjacencies.obj
 0001:00002ed0       ?GetNbTotalCalls@RadixSort@Cm@physx@@QBEIXZ 10003ed0 f i Adjacencies.obj
 0001:00002ef0       ?GetRanks@RadixSort@Cm@physx@@QBEPBIXZ 10003ef0 f i Adjacencies.obj
 0001:00002f10       ?GetRecyclable@RadixSort@Cm@physx@@QBEPAIXZ 10003f10 f i Adjacencies.obj
 0001:00002f30       ?HasActiveEdge01@AdjTriangle@physx@@QBEHXZ 10003f30 f i Adjacencies.obj
 0001:00002f50       ?HasActiveEdge01@EdgeTriangleAC@Gu@physx@@SAHABUEdgeTriangleData@23@@Z 10003f50 f i Adjacencies.obj
 0001:00002f70       ?HasActiveEdge12@AdjTriangle@physx@@QBEHXZ 10003f70 f i Adjacencies.obj
 0001:00002f90       ?HasActiveEdge12@EdgeTriangleAC@Gu@physx@@SAHABUEdgeTriangleData@23@@Z 10003f90 f i Adjacencies.obj
 0001:00002fb0       ?HasActiveEdge20@AdjTriangle@physx@@QBEHXZ 10003fb0 f i Adjacencies.obj
 0001:00002fd0       ?HasActiveEdge20@EdgeTriangleAC@Gu@physx@@SAHABUEdgeTriangleData@23@@Z 10003fd0 f i Adjacencies.obj
 0001:00002ff0       ?PxMemZero@physx@@YAPAXPAXI@Z 10003ff0 f i Adjacencies.obj
 0001:00003010       ?__empty_global_delete@@YAXPAX@Z 10004010 f i Adjacencies.obj
 0001:00003020       ?__empty_global_delete@@YAXPAXI@Z 10004020 f i Adjacencies.obj
 0001:00003030       ?allocate@?$ReflectionAllocator@I@shdfnd@physx@@QAEPAXIPBDH@Z 10004030 f i Adjacencies.obj
 0001:00003080       ?allocate@?$ReflectionAllocator@VAdjEdge@@@shdfnd@physx@@QAEPAXIPBDH@Z 10004080 f i Adjacencies.obj
 0001:000030d0       ?allocate@?$ReflectionAllocator@VAdjTriangle@physx@@@shdfnd@physx@@QAEPAXIPBDH@Z 100040d0 f i Adjacencies.obj
 0001:00003120       ?deallocate@NonTrackingAllocator@shdfnd@physx@@QAEXPAX@Z 10004120 f i Adjacencies.obj
 0001:00003150       ?findEdge@?$TriangleT@I@Gu@physx@@QBEEII@Z 10004150 f i Adjacencies.obj
 0001:00003270       ?getAllocator@Foundation@shdfnd@physx@@QAEAAVPxAllocatorCallback@3@XZ 10004270 f i Adjacencies.obj
 0001:00003290       ?getAllocatorCallback@Foundation@shdfnd@physx@@UAEAAVPxAllocatorCallback@3@XZ 10004290 f i Adjacencies.obj
 0001:000032b0       ?getEdgeTriangle@EdgeList@Gu@physx@@QBEABUEdgeTriangleData@23@I@Z 100042b0 f i Adjacencies.obj
 0001:000032d0       ?getErrorCallback@Foundation@shdfnd@physx@@UAEAAVPxErrorCallback@3@XZ 100042d0 f i Adjacencies.obj
 0001:000032f0       ?getErrorLevel@Foundation@shdfnd@physx@@UBE?AW4Enum@PxErrorCode@3@XZ 100042f0 f i Adjacencies.obj
 0001:00003310       ?getFoundation@shdfnd@physx@@YAAAVFoundation@12@XZ 10004310 f i Adjacencies.obj
 0001:00003320       ?getInternalErrorCallback@Foundation@shdfnd@physx@@QAEAAVPxErrorCallback@3@XZ 10004320 f i Adjacencies.obj
 0001:00003340       ?getName@?$ReflectionAllocator@I@shdfnd@physx@@CAPBDXZ 10004340 f i Adjacencies.obj
 0001:00003380       ?getName@?$ReflectionAllocator@VAdjEdge@@@shdfnd@physx@@CAPBDXZ 10004380 f i Adjacencies.obj
 0001:000033c0       ?getName@?$ReflectionAllocator@VAdjTriangle@physx@@@shdfnd@physx@@CAPBDXZ 100043c0 f i Adjacencies.obj
 0001:00003400       ?getNamedAllocMap@Foundation@shdfnd@physx@@QAEAAV?$HashMap@PBVNamedAllocator@shdfnd@physx@@PBDU?$Hash@PBVNamedAllocator@shdfnd@physx@@@23@VNonTrackingAllocator@23@@23@XZ 10004400 f i Adjacencies.obj
 0001:00003420       ?getNamedAllocMutex@Foundation@shdfnd@physx@@QAEAAV?$MutexT@VAllocator@shdfnd@physx@@@23@XZ 10004420 f i Adjacencies.obj
 0001:00003440       ?getReportAllocationNames@Foundation@shdfnd@physx@@UBE_NXZ 10004440 f i Adjacencies.obj
 0001:00003460       ?getTempAllocFreeTable@Foundation@shdfnd@physx@@QAEAAV?$Array@PATTempAllocatorChunk@shdfnd@physx@@VAllocator@23@@23@XZ 10004460 f i Adjacencies.obj
 0001:00003480       ?getTempAllocMutex@Foundation@shdfnd@physx@@QAEAAV?$MutexT@VAllocator@shdfnd@physx@@@23@XZ 10004480 f i Adjacencies.obj
 0001:000034a0       ?invalidateRanks@RadixSort@Cm@physx@@QAEXXZ 100044a0 f i Adjacencies.obj
 0001:000034c0       ?memZero@intrinsics@physx@@YAPAXPAXI@Z 100044c0 f i Adjacencies.obj
 0001:000034e0       ?name@type_info@@QBEPBDXZ  100044e0 f i Adjacencies.obj
 0001:00003500       ?setErrorLevel@Foundation@shdfnd@physx@@UAEXW4Enum@PxErrorCode@3@@Z 10004500 f i Adjacencies.obj
 0001:00003520       ?setReportAllocationNames@Foundation@shdfnd@physx@@UAEX_N@Z 10004520 f i Adjacencies.obj
 0001:00003540       _PxCreateCooking           10004540 f   Cooking.obj
 0001:000035f0       ?release@Cooking@physx@@UAEXXZ 100045f0 f   Cooking.obj
 0001:00003630       ?setParams@Cooking@physx@@UAEXABUPxCookingParams@2@@Z 10004630 f   Cooking.obj
 0001:00003650       ?getParams@Cooking@physx@@UBEABUPxCookingParams@2@XZ 10004650 f   Cooking.obj
 0001:00003670       ?platformMismatch@Cooking@physx@@UBE_NXZ 10004670 f   Cooking.obj
 0001:000036b0       ?cookTriangleMesh@Cooking@physx@@UBE_NABVPxTriangleMeshDesc@2@AAVPxOutputStream@2@PAW4Enum@PxTriangleMeshCookingResult@2@@Z 100046b0 f   Cooking.obj
 0001:00003770       ?createTriangleMesh@Cooking@physx@@UBEPAVPxTriangleMesh@2@ABVPxTriangleMeshDesc@2@AAVPxPhysicsInsertionCallback@2@PAW4Enum@PxTriangleMeshCookingResult@2@@Z 10004770 f   Cooking.obj
 0001:00003830       ?validateTriangleMesh@Cooking@physx@@UBE_NABVPxTriangleMeshDesc@2@@Z 10004830 f   Cooking.obj
 0001:000038d0       ?cookConvexMesh@Cooking@physx@@UBE_NABVPxConvexMeshDesc@2@AAVPxOutputStream@2@PAW4Enum@PxConvexMeshCookingResult@2@@Z 100048d0 f   Cooking.obj
 0001:00003b00       ?createConvexMesh@Cooking@physx@@UBEPAVPxConvexMesh@2@ABVPxConvexMeshDesc@2@AAVPxPhysicsInsertionCallback@2@PAW4Enum@PxConvexMeshCookingResult@2@@Z 10004b00 f   Cooking.obj
 0001:00003de0       ?validateConvexMesh@Cooking@physx@@UBE_NABVPxConvexMeshDesc@2@@Z 10004de0 f   Cooking.obj
 0001:00003e30       ?computeHullPolygons@Cooking@physx@@UBE_NABVPxSimpleTriangleMesh@2@AAVPxAllocatorCallback@2@AAIAAPAVPxVec3@2@2AAPAI2AAPAUPxHullPolygon@2@@Z 10004e30 f   Cooking.obj
 0001:00003ff0       ?cookHeightField@Cooking@physx@@UBE_NABVPxHeightFieldDesc@2@AAVPxOutputStream@2@@Z 10004ff0 f   Cooking.obj
 0001:00004110       ?createHeightField@Cooking@physx@@UBEPAVPxHeightField@2@ABVPxHeightFieldDesc@2@AAVPxPhysicsInsertionCallback@2@@Z 10005110 f   Cooking.obj
 0001:000042f0       ?cookBVHStructure@Cooking@physx@@UBE_NABVPxBVHStructureDesc@2@AAVPxOutputStream@2@@Z 100052f0 f   Cooking.obj
 0001:000043b0       ?createBVHStructure@Cooking@physx@@UBEPAVPxBVHStructure@2@ABVPxBVHStructureDesc@2@AAVPxPhysicsInsertionCallback@2@@Z 100053b0 f   Cooking.obj
 0001:00004480       ?cookConvexMeshInternal@Cooking@physx@@ABE_NABVPxConvexMeshDesc@2@AAVConvexMeshBuilder@2@PAVConvexHullLib@2@PAW4Enum@PxConvexMeshCookingResult@2@@Z 10005480 f   Cooking.obj
 0001:000046b0       ?cookTriangleMesh@Cooking@physx@@ABE_NAAVTriangleMeshBuilder@2@ABVPxTriangleMeshDesc@2@AAVPxOutputStream@2@PAW4Enum@PxTriangleMeshCookingResult@2@@Z 100056b0 f   Cooking.obj
 0001:00004740       ?createTriangleMesh@Cooking@physx@@ABEPAVPxTriangleMesh@2@AAVTriangleMeshBuilder@2@ABVPxTriangleMeshDesc@2@AAVPxPhysicsInsertionCallback@2@PAW4Enum@PxTriangleMeshCookingResult@2@@Z 10005740 f   Cooking.obj
 0001:000048a0       ??$?2V?$ReflectionAllocator@VCooking@physx@@@shdfnd@physx@@@UserAllocated@shdfnd@physx@@SAPAXIV?$ReflectionAllocator@VCooking@physx@@@12@PBDH@Z 100058a0 f i Cooking.obj
 0001:000048c0       ??$?2V?$ReflectionAllocator@VQuickHullConvexHullLib@physx@@@shdfnd@physx@@@UserAllocated@shdfnd@physx@@SAPAXIV?$ReflectionAllocator@VQuickHullConvexHullLib@physx@@@12@PBDH@Z 100058c0 f i Cooking.obj
 0001:000048e0       ??$PX_UNUSED@VPxFoundation@physx@@@@YAXABVPxFoundation@physx@@@Z 100058e0 f i Cooking.obj
 0001:000048f0       ??$PX_UNUSED@W4PxIDENTITY@physx@@@@YAXABW4PxIDENTITY@physx@@@Z 100058f0 f i Cooking.obj
 0001:00004900       ??$PxMax@I@physx@@YAIII@Z  10005900 f i Cooking.obj
 0001:00004930       ??$PxMin@G@physx@@YAGGG@Z  10005930 f i Cooking.obj
 0001:00004960       ??0?$PxBitAndDataT@G$0IAAA@@physx@@QAE@W4PxEMPTY@1@@Z 10005960 f i Cooking.obj
 0001:00004970       ??0?$PxBitAndDataT@G$0IAAA@@physx@@QAE@XZ 10005970 f i Cooking.obj
 0001:00004990       ??0?$PxBitAndDataT@I$0IAAAAAAA@@physx@@QAE@I_N@Z 10005990 f i Cooking.obj
 0001:000049d0       ??0?$PxBitAndDataT@I$0IAAAAAAA@@physx@@QAE@W4PxEMPTY@1@@Z 100059d0 f i Cooking.obj
 0001:000049e0       ??0?$PxFlags@W4Enum@PxBaseFlag@physx@@G@physx@@QAE@ABV01@@Z 100059e0 f i Cooking.obj
 0001:00004a00       ??0?$PxFlags@W4Enum@PxConvexFlag@physx@@G@physx@@QAE@ABV01@@Z 10005a00 f i Cooking.obj
 0001:00004a20       ??0?$PxFlags@W4Enum@PxConvexFlag@physx@@G@physx@@QAE@W4Enum@PxConvexFlag@1@@Z 10005a20 f i Cooking.obj
 0001:00004a40       ??0?$PxFlags@W4Enum@PxConvexFlag@physx@@G@physx@@QAE@XZ 10005a40 f i Cooking.obj
 0001:00004a60       ??0?$PxFlags@W4Enum@PxHeightFieldFlag@physx@@G@physx@@QAE@ABV01@@Z 10005a60 f i Cooking.obj
 0001:00004a80       ??0?$PxFlags@W4Enum@PxHeightFieldFlag@physx@@G@physx@@QAE@W4PxEMPTY@1@@Z 10005a80 f i Cooking.obj
 0001:00004a90       ??0?$PxFlags@W4Enum@PxHeightFieldFlag@physx@@G@physx@@QAE@XZ 10005a90 f i Cooking.obj
 0001:00004ab0       ??0?$PxFlags@W4Enum@PxMeshFlag@physx@@G@physx@@QAE@ABV01@@Z 10005ab0 f i Cooking.obj
 0001:00004ad0       ??0?$PxFlags@W4Enum@PxMeshPreprocessingFlag@physx@@I@physx@@QAE@ABV01@@Z 10005ad0 f i Cooking.obj
 0001:00004af0       ??0?$ReflectionAllocator@VCooking@physx@@@shdfnd@physx@@QAE@PBD@Z 10005af0 f i Cooking.obj
 0001:00004b00       ??0?$ReflectionAllocator@VHeightField@Gu@physx@@@shdfnd@physx@@QAE@PBD@Z 10005b00 f i Cooking.obj
 0001:00004b10       ??0?$ReflectionAllocator@VQuickHullConvexHullLib@physx@@@shdfnd@physx@@QAE@PBD@Z 10005b10 f i Cooking.obj
 0001:00004b20       ??0CenterExtents@Gu@physx@@QAE@ABV012@@Z 10005b20 f i Cooking.obj
 0001:00004b50       ??0CenterExtents@Gu@physx@@QAE@XZ 10005b50 f i Cooking.obj
 0001:00004b80       ??0ConvexHullData@Gu@physx@@QAE@W4PxEMPTY@2@@Z 10005b80 f i Cooking.obj
 0001:00004bb0       ??0ConvexHullData@Gu@physx@@QAE@XZ 10005bb0 f i Cooking.obj
 0001:00004be0       ??0ConvexMesh@Gu@physx@@QAE@V?$PxFlags@W4Enum@PxBaseFlag@physx@@G@2@@Z 10005be0 f i Cooking.obj
 0001:00004c60       ??0Cooking@physx@@QAE@ABUPxCookingParams@1@@Z 10005c60 f i Cooking.obj
 0001:00004c90       ??0DebugText@Cm@physx@@QAE@$$QAU012@@Z 10005c90 f i Cooking.obj
 0001:00004ce0       ??0DebugText@Cm@physx@@QAE@ABU012@@Z 10005ce0 f i Cooking.obj
 0001:00004d30       ??0HeightFieldData@Gu@physx@@QAE@$$QAU012@@Z 10005d30 f i Cooking.obj
 0001:00004dc0       ??0HeightFieldData@Gu@physx@@QAE@ABU012@@Z 10005dc0 f i Cooking.obj
 0001:00004e50       ??0HeightFieldData@Gu@physx@@QAE@W4PxEMPTY@2@@Z 10005e50 f i Cooking.obj
 0001:00004e80       ??0HeightFieldData@Gu@physx@@QAE@XZ 10005e80 f i Cooking.obj
 0001:00004eb0       ??0PxBase@physx@@IAE@V?$PxFlags@W4Enum@PxBaseFlag@physx@@G@1@@Z 10005eb0 f i Cooking.obj
 0001:00004ee0       ??0PxConvexMesh@physx@@IAE@V?$PxFlags@W4Enum@PxBaseFlag@physx@@G@1@@Z 10005ee0 f i Cooking.obj
 0001:00004f10       ??0PxConvexMeshDesc@physx@@QAE@ABV01@@Z 10005f10 f i Cooking.obj
 0001:00004fa0       ??0PxCooking@physx@@QAE@XZ 10005fa0 f i Cooking.obj
 0001:00004fc0       ??0PxCookingParams@physx@@QAE@ABU01@@Z 10005fc0 f i Cooking.obj
 0001:00005070       ??0PxDebugLine@physx@@QAE@ABU01@@Z 10006070 f i Cooking.obj
 0001:000050c0       ??0PxMat33@physx@@QAE@XZ   100060c0 f i Cooking.obj
 0001:000050f0       ??0PxMat44@physx@@QAE@ABV01@@Z 100060f0 f i Cooking.obj
 0001:00005150       ??0PxMat44@physx@@QAE@W4PxIDENTITY@1@@Z 10006150 f i Cooking.obj
 0001:00005240       ??0PxVec3@physx@@QAE@ABV01@@Z 10006240 f i Cooking.obj
 0001:00005280       ??0PxVec3@physx@@QAE@M@Z   10006280 f i Cooking.obj
 0001:000052c0       ??0PxVec3@physx@@QAE@MMM@Z 100062c0 f i Cooking.obj
 0001:00005300       ??0PxVec3@physx@@QAE@XZ    10006300 f i Cooking.obj
 0001:00005310       ??0PxVec4@physx@@QAE@ABV01@@Z 10006310 f i Cooking.obj
 0001:00005350       ??0PxVec4@physx@@QAE@MMMM@Z 10006350 f i Cooking.obj
 0001:000053a0       ??0RefCountable@Cm@physx@@QAE@W4PxEMPTY@2@@Z 100063a0 f i Cooking.obj
 0001:00005400       ??0RenderOutput@Cm@physx@@QAE@AAVRenderBuffer@12@@Z 10006400 f i Cooking.obj
 0001:00005470       ??0RenderOutput@Cm@physx@@QAE@ABV012@@Z 10006470 f i Cooking.obj
 0001:000054f0       ??1CenterExtents@Gu@physx@@QAE@XZ 100064f0 f i Cooking.obj
 0001:00005500       ??1ConvexHullData@Gu@physx@@QAE@XZ 10006500 f i Cooking.obj
 0001:00005520       ??1Cooking@physx@@UAE@XZ   10006520 f i Cooking.obj
 0001:00005540       ??1HeightFieldData@Gu@physx@@QAE@XZ 10006540 f i Cooking.obj
 0001:00005560       ??1PxBase@physx@@MAE@XZ    10006560 f i Cooking.obj
 0001:00005580       ??1PxConvexMesh@physx@@MAE@XZ 10006580 f i Cooking.obj
 0001:000055a0       ??1PxCooking@physx@@MAE@XZ 100065a0 f i Cooking.obj
 0001:000055c0       ??1PxHeightField@physx@@MAE@XZ 100065c0 f i Cooking.obj
 0001:000055e0       ??1RefCountable@Cm@physx@@UAE@XZ 100065e0 f i Cooking.obj
 0001:00005600       ??2@YAPAXIPAX@Z            10006600 f i Cooking.obj
 0001:00005610       ??2UserAllocated@shdfnd@physx@@SAPAXIPAX@Z 10006610 f i Cooking.obj
 0001:00005620       ??4?$PxFlags@W4Enum@PxHeightFieldFlag@physx@@G@physx@@QAEAAV01@ABV01@@Z 10006620 f i Cooking.obj
 0001:00005640       ??4?$PxFlags@W4Enum@PxMeshPreprocessingFlag@physx@@I@physx@@QAEAAV01@ABV01@@Z 10006640 f i Cooking.obj
 0001:00005660       ??4CenterExtents@Gu@physx@@QAEAAV012@ABV012@@Z 10006660 f i Cooking.obj
 0001:00005690       ??4DebugText@Cm@physx@@QAEAAU012@$$QAU012@@Z 10006690 f i Cooking.obj
 0001:00005700       ??4DebugText@Cm@physx@@QAEAAU012@ABU012@@Z 10006700 f i Cooking.obj
 0001:00005770       ??4FPUGuard@shdfnd@physx@@QAEAAV012@ABV012@@Z 10006770 f i Cooking.obj
 0001:000057a0       ??4HeightFieldData@Gu@physx@@QAEAAU012@$$QAU012@@Z 100067a0 f i Cooking.obj
 0001:00005830       ??4HeightFieldData@Gu@physx@@QAEAAU012@ABU012@@Z 10006830 f i Cooking.obj
 0001:000058c0       ??4PxCookingParams@physx@@QAEAAU01@ABU01@@Z 100068c0 f i Cooking.obj
 0001:00005970       ??4PxMat33@physx@@QAEAAV01@ABV01@@Z 10006970 f i Cooking.obj
 0001:000059b0       ??4PxVec3@physx@@QAEAAV01@ABV01@@Z 100069b0 f i Cooking.obj
 0001:000059f0       ??9?$PxFlags@W4Enum@PxHeightFieldFlag@physx@@G@physx@@QBE_NABV01@@Z 100069f0 f i Cooking.obj
 0001:00005a30       ??B?$PxBitAndDataT@E$0IA@@physx@@QBEEXZ 10006a30 f i Cooking.obj
 0001:00005a50       ??B?$PxBitAndDataT@G$0IAAA@@physx@@QBEGXZ 10006a50 f i Cooking.obj
 0001:00005a70       ??B?$PxFlags@W4Enum@PxBaseFlag@physx@@G@physx@@QBE_NXZ 10006a70 f i Cooking.obj
 0001:00005aa0       ??B?$PxFlags@W4Enum@PxConvexFlag@physx@@G@physx@@QBE_NXZ 10006aa0 f i Cooking.obj
 0001:00005ad0       ??B?$PxFlags@W4Enum@PxMeshFlag@physx@@G@physx@@QBE_NXZ 10006ad0 f i Cooking.obj
 0001:00005b00       ??B?$PxFlags@W4Enum@PxMeshPreprocessingFlag@physx@@I@physx@@QBE_NXZ 10006b00 f i Cooking.obj
 0001:00005b30       ??I?$PxFlags@W4Enum@PxBaseFlag@physx@@G@physx@@QBE?AV01@W4Enum@PxBaseFlag@1@@Z 10006b30 f i Cooking.obj
 0001:00005b70       ??I?$PxFlags@W4Enum@PxConvexFlag@physx@@G@physx@@QBE?AV01@W4Enum@PxConvexFlag@1@@Z 10006b70 f i Cooking.obj
 0001:00005bb0       ??I?$PxFlags@W4Enum@PxHeightFieldFlag@physx@@G@physx@@QBE?AV01@W4Enum@PxHeightFieldFlag@1@@Z 10006bb0 f i Cooking.obj
 0001:00005bf0       ??I?$PxFlags@W4Enum@PxMeshFlag@physx@@G@physx@@QBE?AV01@W4Enum@PxMeshFlag@1@@Z 10006bf0 f i Cooking.obj
 0001:00005c30       ??I?$PxFlags@W4Enum@PxMeshPreprocessingFlag@physx@@I@physx@@QBE?AV01@W4Enum@PxMeshPreprocessingFlag@1@@Z 10006c30 f i Cooking.obj
 0001:00005c70       ??S?$PxFlags@W4Enum@PxConvexFlag@physx@@G@physx@@QBE?AV01@XZ 10006c70 f i Cooking.obj
 0001:00005cb0       ??Sphysx@@YA?AV?$PxFlags@W4Enum@PxConvexFlag@physx@@G@0@W4Enum@PxConvexFlag@0@@Z 10006cb0 f i Cooking.obj
 0001:00005ce0       ??_4?$PxFlags@W4Enum@PxConvexFlag@physx@@G@physx@@QAEAAV01@ABV01@@Z 10006ce0 f i Cooking.obj
 0001:00005d10       ??_EConvexMesh@Gu@physx@@UAEPAXI@Z 10006d10 f i Cooking.obj
 0001:00005dc3       ??_EConvexMesh@Gu@physx@@W7AEPAXI@Z 10006dc3 f i Cooking.obj
 0001:00005dd0       ??_EPxConvexMesh@physx@@MAEPAXI@Z 10006dd0 f i Cooking.obj
 0001:00005e50       ??_EPxHeightField@physx@@MAEPAXI@Z 10006e50 f i Cooking.obj
 0001:00005ed0       ??_ECooking@physx@@UAEPAXI@Z 10006ed0 f i Cooking.obj
 0001:00005ed0       ??_GCooking@physx@@UAEPAXI@Z 10006ed0 f i Cooking.obj
 0001:00005f20       ??_EPxBase@physx@@MAEPAXI@Z 10006f20 f i Cooking.obj
 0001:00005f20       ??_GPxBase@physx@@MAEPAXI@Z 10006f20 f i Cooking.obj
 0001:00005f50       ??_GPxCooking@physx@@MAEPAXI@Z 10006f50 f i Cooking.obj
 0001:00005f50       ??_EPxCooking@physx@@MAEPAXI@Z 10006f50 f i Cooking.obj
 0001:00005f80       ??_ERefCountable@Cm@physx@@UAEPAXI@Z 10006f80 f i Cooking.obj
 0001:00005f80       ??_GRefCountable@Cm@physx@@UAEPAXI@Z 10006f80 f i Cooking.obj
 0001:00005fb0       ?FLoad@aos@shdfnd@physx@@YA?AT__m128@@M@Z 10006fb0 f i Cooking.obj
 0001:00005ff0       ?PxMemCopy@physx@@YAPAXPAXPBXI@Z 10006ff0 f i Cooking.obj
 0001:00006010       ?V3Load@aos@shdfnd@physx@@YA?AT__m128@@M@Z 10007010 f i Cooking.obj
 0001:00006060       ?V4Load@aos@shdfnd@physx@@YA?AT__m128@@M@Z 10007060 f i Cooking.obj
 0001:000060a0       ?allocate@?$Array@UPxDebugLine@physx@@VNamedAllocator@shdfnd@2@@shdfnd@physx@@IAEPAUPxDebugLine@3@I@Z 100070a0 f i Cooking.obj
 0001:00006110       ?allocate@?$ReflectionAllocator@VCooking@physx@@@shdfnd@physx@@QAEPAXIPBDH@Z 10007110 f i Cooking.obj
 0001:00006160       ?allocate@?$ReflectionAllocator@VHeightField@Gu@physx@@@shdfnd@physx@@QAEPAXIPBDH@Z 10007160 f i Cooking.obj
 0001:000061b0       ?allocate@?$ReflectionAllocator@VQuickHullConvexHullLib@physx@@@shdfnd@physx@@QAEPAXIPBDH@Z 100071b0 f i Cooking.obj
 0001:00006200       ?capacity@?$Array@UPxDebugLine@physx@@VNamedAllocator@shdfnd@2@@shdfnd@physx@@QBEIXZ 10007200 f i Cooking.obj
 0001:00006220       ?copy@?$Array@UPxDebugLine@physx@@VNamedAllocator@shdfnd@2@@shdfnd@physx@@KAXPAUPxDebugLine@3@0PBU43@@Z 10007220 f i Cooking.obj
 0001:00006270       ?deallocate@?$Array@UPxDebugLine@physx@@VNamedAllocator@shdfnd@2@@shdfnd@physx@@IAEXPAX@Z 10007270 f i Cooking.obj
 0001:00006290       ?destroy@?$Array@UPxDebugLine@physx@@VNamedAllocator@shdfnd@2@@shdfnd@physx@@KAXPAUPxDebugLine@3@0@Z 10007290 f i Cooking.obj
 0001:000062b0       ?end@?$Array@UPxDebugLine@physx@@VNamedAllocator@shdfnd@2@@shdfnd@physx@@QAEPAUPxDebugLine@3@XZ 100072b0 f i Cooking.obj
 0001:000062d0       ?forceSize_Unsafe@?$Array@UPxDebugLine@physx@@VNamedAllocator@shdfnd@2@@shdfnd@physx@@QAEXI@Z 100072d0 f i Cooking.obj
 0001:00006330       ?fsel@intrinsics@physx@@YAMMMM@Z 10007330 f i Cooking.obj
 0001:00006360       ?gatherStrided@Cooking@physx@@SAXPBXPAXIII@Z 10007360 f i Cooking.obj
 0001:000063c0       ?getBigConvexData@ConvexMeshBuilder@physx@@QBEPAVBigConvexData@2@XZ 100073c0 f i Cooking.obj
 0001:000063e0       ?getConcreteTypeName@PxConvexMesh@physx@@UBEPBDXZ 100073e0 f i Cooking.obj
 0001:000063f0       ?getConcreteTypeName@PxHeightField@physx@@UBEPBDXZ 100073f0 f i Cooking.obj
 0001:00006400       ?getConvexEdgeThreshold@HeightField@Gu@physx@@UBEMXZ 10007400 f i Cooking.obj
 0001:00006420       ?getFlags@HeightField@Gu@physx@@UBE?AV?$PxFlags@W4Enum@PxHeightFieldFlag@physx@@G@3@XZ 10007420 f i Cooking.obj
 0001:00006440       ?getFormat@HeightField@Gu@physx@@UBE?AW4Enum@PxHeightFieldFormat@3@XZ 10007440 f i Cooking.obj
 0001:00006460       ?getHeight@HeightField@Gu@physx@@QBEMI@Z 10007460 f i Cooking.obj
 0001:00006490       ?getHeight@HeightField@Gu@physx@@UBEMMM@Z 10007490 f i Cooking.obj
 0001:000064c0       ?getHeightInternal2@HeightField@Gu@physx@@QBEMIMM@Z 100074c0 f i Cooking.obj
 0001:00006690       ?getHeightInternal@HeightField@Gu@physx@@QBEMMM@Z 10007690 f i Cooking.obj
 0001:000066f0       ?getHullVertices@ConvexHullData@Gu@physx@@QBEPBVPxVec3@3@XZ 100076f0 f i Cooking.obj
 0001:00006720       ?getIndexBuffer@ConvexMesh@Gu@physx@@UBEPBEXZ 10007720 f i Cooking.obj
 0001:00006740       ?getInertia@ConvexMeshBuilder@physx@@QBEABVPxMat33@2@XZ 10007740 f i Cooking.obj
 0001:00006760       ?getMass@ConvexMeshBuilder@physx@@QBEMXZ 10007760 f i Cooking.obj
 0001:00006780       ?getMaterialIndex0@HeightField@Gu@physx@@QBEGI@Z 10007780 f i Cooking.obj
 0001:000067b0       ?getMaterialIndex1@HeightField@Gu@physx@@QBEGI@Z 100077b0 f i Cooking.obj
 0001:000067e0       ?getMeshData@TriangleMeshBuilder@physx@@QAEAAVTriangleMeshData@Gu@2@XZ 100077e0 f i Cooking.obj
 0001:00006800       ?getName@?$ReflectionAllocator@VCooking@physx@@@shdfnd@physx@@CAPBDXZ 10007800 f i Cooking.obj
 0001:00006840       ?getName@?$ReflectionAllocator@VHeightField@Gu@physx@@@shdfnd@physx@@CAPBDXZ 10007840 f i Cooking.obj
 0001:00006880       ?getName@?$ReflectionAllocator@VQuickHullConvexHullLib@physx@@@shdfnd@physx@@CAPBDXZ 10007880 f i Cooking.obj
 0001:000068c0       ?getNbColumns@HeightField@Gu@physx@@UBEIXZ 100078c0 f i Cooking.obj
 0001:000068e0       ?getNbColumnsFast@HeightField@Gu@physx@@QBEIXZ 100078e0 f i Cooking.obj
 0001:00006900       ?getNbPolygons@ConvexMesh@Gu@physx@@UBEIXZ 10007900 f i Cooking.obj
 0001:00006920       ?getNbRows@HeightField@Gu@physx@@UBEIXZ 10007920 f i Cooking.obj
 0001:00006940       ?getNbVertices@ConvexMesh@Gu@physx@@UBEIXZ 10007940 f i Cooking.obj
 0001:00006960       ?getPaddedBounds@HeightFieldData@Gu@physx@@QBEABVCenterExtentsPadded@23@XZ 10007960 f i Cooking.obj
 0001:00006970       ?getSample@HeightField@Gu@physx@@QBEABUPxHeightFieldSample@3@I@Z 10007970 f i Cooking.obj
 0001:000069e0       ?getSample@HeightField@Gu@physx@@UBEABUPxHeightFieldSample@3@II@Z 100079e0 f i Cooking.obj
 0001:00006a10       ?getSampleStride@HeightField@Gu@physx@@UBEIXZ 10007a10 f i Cooking.obj
 0001:00006a20       ?getTimestamp@HeightField@Gu@physx@@UBEIXZ 10007a20 f i Cooking.obj
 0001:00006a40       ?getTriangleMaterial@HeightField@Gu@physx@@QBEGI@Z 10007a40 f i Cooking.obj
 0001:00006a90       ?getTriangleMaterialIndex@HeightField@Gu@physx@@UBEGI@Z 10007a90 f i Cooking.obj
 0001:00006ab0       ?getTriangleNormal@HeightField@Gu@physx@@UBE?AVPxVec3@3@I@Z 10007ab0 f i Cooking.obj
 0001:00006ad0       ?getTriangleNormalInternal@HeightField@Gu@physx@@QBE?AVPxVec3@3@I@Z 10007ad0 f i Cooking.obj
 0001:00006cc0       ?getTriangleVertexIndices@HeightField@Gu@physx@@QBEXIAAI00@Z 10007cc0 f i Cooking.obj
 0001:00006db0       ?getType@PxMidphaseDesc@physx@@QBE?AW4Enum@PxMeshMidPhase@2@XZ 10007db0 f i Cooking.obj
 0001:00006dd0       ?getVertexData8@ConvexHullData@Gu@physx@@QBEPBEXZ 10007dd0 f i Cooking.obj
 0001:00006e60       ?getVertices@ConvexMesh@Gu@physx@@UBEPBVPxVec3@3@XZ 10007e60 f i Cooking.obj
 0001:00006e80       ?grow@?$Array@UPxDebugLine@physx@@VNamedAllocator@shdfnd@2@@shdfnd@physx@@IAEXI@Z 10007e80 f i Cooking.obj
 0001:00006ee0       ?isBitSet@?$PxBitAndDataT@E$0IA@@physx@@QBEEXZ 10007ee0 f i Cooking.obj
 0001:00006f00       ?isBitSet@?$PxBitAndDataT@G$0IAAA@@physx@@QBEGXZ 10007f00 f i Cooking.obj
 0001:00006f20       ?isFirstTriangle@HeightField@Gu@physx@@QBE_NI@Z 10007f20 f i Cooking.obj
 0001:00006f50       ?isInUserMemory@?$Array@UPxDebugLine@physx@@VNamedAllocator@shdfnd@2@@shdfnd@physx@@QBEIXZ 10007f50 f i Cooking.obj
 0001:00006f70       ?isKindOf@PxBase@physx@@MBE_NPBD@Z 10007f70 f i Cooking.obj
 0001:00006fb0       ?isKindOf@PxConvexMesh@physx@@MBE_NPBD@Z 10007fb0 f i Cooking.obj
 0001:00007000       ?isKindOf@PxHeightField@physx@@MBE_NPBD@Z 10008000 f i Cooking.obj
 0001:00007050       ?isReleasable@PxBase@physx@@UBE_NXZ 10008050 f i Cooking.obj
 0001:00007080       ?isValid@PxBVHStructureDesc@physx@@QBE_NXZ 10008080 f i Cooking.obj
 0001:000070c0       ?isValid@PxConvexMeshDesc@physx@@QBE_NXZ 100080c0 f i Cooking.obj
 0001:00007260       ?isValid@PxHeightFieldDesc@physx@@QBE_NXZ 10008260 f i Cooking.obj
 0001:000072e0       ?isValid@PxSimpleTriangleMesh@physx@@QBE_NXZ 100082e0 f i Cooking.obj
 0001:00007390       ?isValid@PxTriangleMeshDesc@physx@@QBE_NXZ 10008390 f i Cooking.obj
 0001:000073f0       ?isValidVertex@HeightField@Gu@physx@@QBE_NI@Z 100083f0 f i Cooking.obj
 0001:00007430       ?isZerothVertexShared@HeightField@Gu@physx@@QBE_NI@Z 10008430 f i Cooking.obj
 0001:00007470       ?littleEndian@shdfnd@physx@@YADXZ 10008470 f i Cooking.obj
 0001:00007490       ?markSerializedMem@Cm@physx@@YAXPAXI@Z 10008490 f i Cooking.obj
 0001:000074c0       ?memCopy@intrinsics@physx@@YAPAXPAXPBXI@Z 100084c0 f i Cooking.obj
 0001:000074e0       ?onRefCountZero@RefCountable@Cm@physx@@UAEXXZ 100084e0 f i Cooking.obj
 0001:00007520       ?outputSegment@RenderOutput@Cm@physx@@QAEXABVPxVec3@3@0@Z 10008520 f i Cooking.obj
 0001:00007570       ?preExportDataReset@ConvexMesh@Gu@physx@@QAEXXZ 10008570 f i Cooking.obj
 0001:00007590       ?preExportDataReset@HeightField@Gu@physx@@QAEXXZ 10008590 f i Cooking.obj
 0001:000075b0       ?preExportDataReset@RefCountable@Cm@physx@@QAEXXZ 100085b0 f i Cooking.obj
 0001:000075d0       ?recreate@?$Array@UPxDebugLine@physx@@VNamedAllocator@shdfnd@2@@shdfnd@physx@@IAEXI@Z 100085d0 f i Cooking.obj
 0001:000076a0       ?requiresObjects@ConvexMesh@Gu@physx@@UAEXAAVPxProcessPxBaseCallback@3@@Z 100086a0 f i Cooking.obj
 0001:000076b0       ?reserve@?$Array@UPxDebugLine@physx@@VNamedAllocator@shdfnd@2@@shdfnd@physx@@QAEXI@Z 100086b0 f i Cooking.obj
 0001:000076e0       ?reserveSegments@RenderOutput@Cm@physx@@QAEPAUPxDebugLine@3@I@Z 100086e0 f i Cooking.obj
 0001:00007710       ?setBigConvexData@ConvexMesh@Gu@physx@@QAEXPAVBigConvexData@3@@Z 10008710 f i Cooking.obj
 0001:00007730       ?setBigConvexData@ConvexMeshBuilder@physx@@QAEXPAVBigConvexData@2@@Z 10008730 f i Cooking.obj
 0001:00007750       ?setBit@?$PxBitAndDataT@I$0IAAAAAAA@@physx@@QAEXXZ 10008750 f i Cooking.obj
 0001:00007770       ?setInertia@ConvexMesh@Gu@physx@@QAEXABVPxMat33@3@@Z 10008770 f i Cooking.obj
 0001:00007790       ?setMass@ConvexMesh@Gu@physx@@QAEXM@Z 10008790 f i Cooking.obj
 0001:000077b0       ?setNb@ConvexMesh@Gu@physx@@QAEXI@Z 100087b0 f i Cooking.obj
 0001:000077e0       ?size@?$Array@UPxDebugLine@physx@@VNamedAllocator@shdfnd@2@@shdfnd@physx@@QBEIXZ 100087e0 f i Cooking.obj
 0001:00007800       ?tessFlag@PxHeightFieldSample@physx@@QBEEXZ 10008800 f i Cooking.obj
 0001:00007840       ??0ReducedVertexCloud@physx@@QAE@PBVPxVec3@1@I@Z 10008840 f   CookingUtils.obj
 0001:00007880       ??1ReducedVertexCloud@physx@@QAE@XZ 10008880 f   CookingUtils.obj
 0001:000078a0       ?Clean@ReducedVertexCloud@physx@@QAEAAV12@XZ 100088a0 f   CookingUtils.obj
 0001:00007900       ?Reduce@ReducedVertexCloud@physx@@QAE_NPAUREDUCEDCLOUD@2@@Z 10008900 f   CookingUtils.obj
 0001:00007c20       ??$?_UM@@YAPAXIV?$ReflectionAllocator@M@shdfnd@physx@@PBDH@Z 10008c20 f i CookingUtils.obj
 0001:00007c40       ??0?$ReflectionAllocator@M@shdfnd@physx@@QAE@PBD@Z 10008c40 f i CookingUtils.obj
 0001:00007c50       ?allocate@?$ReflectionAllocator@M@shdfnd@physx@@QAEPAXIPBDH@Z 10008c50 f i CookingUtils.obj
 0001:00007ca0       ?getName@?$ReflectionAllocator@M@shdfnd@physx@@CAPBDXZ 10008ca0 f i CookingUtils.obj
 0001:00007ce0       ??0EdgeList@Gu@physx@@QAE@XZ 10008ce0 f   EdgeList.obj
 0001:00007d20       ??1EdgeList@Gu@physx@@QAE@XZ 10008d20 f   EdgeList.obj
 0001:00007dc0       ?load@EdgeList@Gu@physx@@QAE_NAAVPxInputStream@3@@Z 10008dc0 f   EdgeList.obj
 0001:00007f80       ??0EdgeListBuilder@Gu@physx@@QAE@XZ 10008f80 f   EdgeList.obj
 0001:00007fa0       ??1EdgeListBuilder@Gu@physx@@QAE@XZ 10008fa0 f   EdgeList.obj
 0001:00007fc0       ?init@EdgeListBuilder@Gu@physx@@QAE_NABUEDGELISTCREATE@23@@Z 10008fc0 f   EdgeList.obj
 0001:00008140       ?createFacesToEdges@EdgeListBuilder@Gu@physx@@AAE_NIPBIPBG@Z 10009140 f   EdgeList.obj
 0001:00008620       ?createEdgesToFaces@EdgeListBuilder@Gu@physx@@AAE_NIPBIPBG@Z 10009620 f   EdgeList.obj
 0001:00008a20       ?computeActiveEdges@EdgeListBuilder@Gu@physx@@AAE_NIPBIPBGPBVPxVec3@3@M@Z 10009a20 f   EdgeList.obj
 0001:00009cb0       ??$?_UUEdgeData@Gu@physx@@@@YAPAXIV?$ReflectionAllocator@UEdgeData@Gu@physx@@@shdfnd@physx@@PBDH@Z 1000acb0 f i EdgeList.obj
 0001:00009cd0       ??$?_UUEdgeTriangleData@Gu@physx@@@@YAPAXIV?$ReflectionAllocator@UEdgeTriangleData@Gu@physx@@@shdfnd@physx@@PBDH@Z 1000acd0 f i EdgeList.obj
 0001:00009cf0       ??0?$ReflectionAllocator@UEdgeData@Gu@physx@@@shdfnd@physx@@QAE@PBD@Z 1000acf0 f i EdgeList.obj
 0001:00009d00       ??0?$ReflectionAllocator@UEdgeTriangleData@Gu@physx@@@shdfnd@physx@@QAE@PBD@Z 1000ad00 f i EdgeList.obj
 0001:00009d10       ??0PxPlane@physx@@QAE@ABVPxVec3@1@00@Z 1000ad10 f i EdgeList.obj
 0001:00009d90       ??0PxTriangle@physx@@QAE@ABVPxVec3@1@00@Z 1000ad90 f i EdgeList.obj
 0001:00009df0       ??1PxTriangle@physx@@QAE@XZ 1000adf0 f i EdgeList.obj
 0001:00009e00       ??DPxVec3@physx@@QBE?AV01@M@Z 1000ae00 f i EdgeList.obj
 0001:00009e50       ??GPxVec3@physx@@QBE?AV01@ABV01@@Z 1000ae50 f i EdgeList.obj
 0001:00009eb0       ??_0PxVec3@physx@@QAEAAV01@M@Z 1000aeb0 f i EdgeList.obj
 0001:00009f10       ?PxAtan2@physx@@YAMMM@Z    1000af10 f i EdgeList.obj
 0001:00009f40       ?PxRecipSqrt@physx@@YAMM@Z 1000af40 f i EdgeList.obj
 0001:00009f60       ?PxSqrt@physx@@YAMM@Z      1000af60 f i EdgeList.obj
 0001:00009f80       ?allocate@?$ReflectionAllocator@UEdgeData@Gu@physx@@@shdfnd@physx@@QAEPAXIPBDH@Z 1000af80 f i EdgeList.obj
 0001:00009fd0       ?allocate@?$ReflectionAllocator@UEdgeTriangleData@Gu@physx@@@shdfnd@physx@@QAEPAXIPBDH@Z 1000afd0 f i EdgeList.obj
 0001:0000a020       ?angle@shdfnd@physx@@YAMABVPxVec3@2@0@Z 1000b020 f i EdgeList.obj
 0001:0000a080       ?cross@PxVec3@physx@@QBE?AV12@ABV12@@Z 1000b080 f i EdgeList.obj
 0001:0000a120       ?distance@PxPlane@physx@@QBEMABVPxVec3@2@@Z 1000b120 f i EdgeList.obj
 0001:0000a160       ?dot@PxVec3@physx@@QBEMABV12@@Z 1000b160 f i EdgeList.obj
 0001:0000a1b0       ?getEdgeToTriangles@EdgeList@Gu@physx@@QBEPBUEdgeDescData@23@XZ 1000b1b0 f i EdgeList.obj
 0001:0000a1d0       ?getEdges@EdgeList@Gu@physx@@QBEPBUEdgeData@23@XZ 1000b1d0 f i EdgeList.obj
 0001:0000a1f0       ?getFacesByEdges@EdgeList@Gu@physx@@QBEPBIXZ 1000b1f0 f i EdgeList.obj
 0001:0000a210       ?getName@?$ReflectionAllocator@UEdgeData@Gu@physx@@@shdfnd@physx@@CAPBDXZ 1000b210 f i EdgeList.obj
 0001:0000a250       ?getName@?$ReflectionAllocator@UEdgeTriangleData@Gu@physx@@@shdfnd@physx@@CAPBDXZ 1000b250 f i EdgeList.obj
 0001:0000a290       ?getNbEdges@EdgeList@Gu@physx@@QBEIXZ 1000b290 f i EdgeList.obj
 0001:0000a2a0       ?getNormalized@PxVec3@physx@@QBE?AV12@XZ 1000b2a0 f i EdgeList.obj
 0001:0000a330       ?magnitude@PxVec3@physx@@QBEMXZ 1000b330 f i EdgeList.obj
 0001:0000a350       ?magnitudeSquared@PxVec3@physx@@QBEMXZ 1000b350 f i EdgeList.obj
 0001:0000a3a0       ?normal@PxTriangle@physx@@QBEXAAVPxVec3@2@@Z 1000b3a0 f i EdgeList.obj
 0001:0000a410       ?normalize@PxVec3@physx@@QAEMXZ 1000b410 f i EdgeList.obj
 0001:0000a450       ?recipSqrt@intrinsics@physx@@YAMM@Z 1000b450 f i EdgeList.obj
 0001:0000a490       ?sqrt@intrinsics@physx@@YAMM@Z 1000b490 f i EdgeList.obj
 0001:0000a4b0       _atan2f                    1000b4b0 f i EdgeList.obj
 0001:0000a4e0       _fabsf                     1000b4e0 f i EdgeList.obj
 0001:0000a510       _sqrtf                     1000b510 f i EdgeList.obj
 0001:0000a540       ??0MeshCleaner@physx@@QAE@IPBVPxVec3@1@IPBIM@Z 1000b540 f   MeshCleaner.obj
 0001:0000ad70       ??1MeshCleaner@physx@@QAE@XZ 1000bd70 f   MeshCleaner.obj
 0001:0000afa0       ??9Indices@@QBE_NABU0@@Z   1000bfa0 f i MeshCleaner.obj
 0001:0000b020       ??9PxVec3@physx@@QBE_NABV01@@Z 1000c020 f i MeshCleaner.obj
 0001:0000b080       ?PxFloor@physx@@YAMM@Z     1000c080 f i MeshCleaner.obj
 0001:0000b0a0       ?nextPowerOfTwo@shdfnd@physx@@YAII@Z 1000c0a0 f i MeshCleaner.obj
 0001:0000b0f0       _floorf                    1000c0f0 f i MeshCleaner.obj
 0001:0000b120       ?createQuantizer@physx@@YAPAVQuantizer@1@XZ 1000c120 f   Quantizer.obj
 0001:0000b180       ?kmeans_cluster3d@@YAIPBVPxVec3@physx@@IIPAV12@PAIMM@Z 1000c180 f   Quantizer.obj
 0001:0000b1c0       ??$?2V?$ReflectionAllocator@VQuantizerImpl@@@shdfnd@physx@@@UserAllocated@shdfnd@physx@@SAPAXIV?$ReflectionAllocator@VQuantizerImpl@@@12@PBDH@Z 1000c1c0 f i Quantizer.obj
 0001:0000b1e0       ??$PX_UNUSED@W4PxZERO@physx@@@@YAXABW4PxZERO@physx@@@Z 1000c1e0 f i Quantizer.obj
 0001:0000b1f0       ??$PxMax@M@physx@@YAMMM@Z  1000c1f0 f i Quantizer.obj
 0001:0000b220       ??$PxMin@M@physx@@YAMMM@Z  1000c220 f i Quantizer.obj
 0001:0000b250       ??$kmeans_cluster@VPxVec3@physx@@M@@YAIPBVPxVec3@physx@@IIPAV01@PAIMM@Z 1000c250 f i Quantizer.obj
 0001:0000b710       ??0?$Array@VPxVec3@physx@@VNamedAllocator@shdfnd@2@@shdfnd@physx@@QAE@ABVNamedAllocator@12@@Z 1000c710 f i Quantizer.obj
 0001:0000b750       ??0?$ReflectionAllocator@VQuantizerImpl@@@shdfnd@physx@@QAE@PBD@Z 1000c750 f i Quantizer.obj
 0001:0000b760       ??0PxBounds3@physx@@QAE@XZ 1000c760 f i Quantizer.obj
 0001:0000b790       ??0PxVec3@physx@@QAE@W4PxZERO@1@@Z 1000c790 f i Quantizer.obj
 0001:0000b7d0       ??0Quantizer@physx@@QAE@XZ 1000c7d0 f i Quantizer.obj
 0001:0000b7f0       ??0QuantizerImpl@@QAE@XZ   1000c7f0 f i Quantizer.obj
 0001:0000b8d0       ??1?$Array@VPxVec3@physx@@VNamedAllocator@shdfnd@2@@shdfnd@physx@@QAE@XZ 1000c8d0 f i Quantizer.obj
 0001:0000b930       ??1Quantizer@physx@@MAE@XZ 1000c930 f i Quantizer.obj
 0001:0000b950       ??1QuantizerImpl@@EAE@XZ   1000c950 f i Quantizer.obj
 0001:0000b990       ??A?$Array@VPxVec3@physx@@VNamedAllocator@shdfnd@2@@shdfnd@physx@@QAEAAVPxVec3@2@I@Z 1000c990 f i Quantizer.obj
 0001:0000b9f0       ??APxVec3@physx@@QAEAAMI@Z 1000c9f0 f i Quantizer.obj
 0001:0000ba30       ??HPxVec3@physx@@QBE?AV01@ABV01@@Z 1000ca30 f i Quantizer.obj
 0001:0000ba90       ??XPxVec3@physx@@QAEAAV01@M@Z 1000ca90 f i Quantizer.obj
 0001:0000bae0       ??YPxVec3@physx@@QAEAAV01@ABV01@@Z 1000cae0 f i Quantizer.obj
 0001:0000bb40       ??_EQuantizer@physx@@MAEPAXI@Z 1000cb40 f i Quantizer.obj
 0001:0000bb40       ??_GQuantizer@physx@@MAEPAXI@Z 1000cb40 f i Quantizer.obj
 0001:0000bb70       ??_GQuantizerImpl@@EAEPAXI@Z 1000cb70 f i Quantizer.obj
 0001:0000bb70       ??_EQuantizerImpl@@EAEPAXI@Z 1000cb70 f i Quantizer.obj
 0001:0000bbc0       ?PxAbs@physx@@YAMM@Z       1000cbc0 f i Quantizer.obj
 0001:0000bbe0       ?PxIsFinite@physx@@YA_NM@Z 1000cbe0 f i Quantizer.obj
 0001:0000bc00       ?abs@intrinsics@physx@@YAMM@Z 1000cc00 f i Quantizer.obj
 0001:0000bc20       ?allocate@?$Array@VPxVec3@physx@@VNamedAllocator@shdfnd@2@@shdfnd@physx@@IAEPAVPxVec3@3@I@Z 1000cc20 f i Quantizer.obj
 0001:0000bc90       ?allocate@?$ReflectionAllocator@VQuantizerImpl@@@shdfnd@physx@@QAEPAXIPBDH@Z 1000cc90 f i Quantizer.obj
 0001:0000bce0       ?capacity@?$Array@VPxVec3@physx@@VNamedAllocator@shdfnd@2@@shdfnd@physx@@QBEIXZ 1000cce0 f i Quantizer.obj
 0001:0000bd00       ?capacityIncrement@?$Array@VPxVec3@physx@@VNamedAllocator@shdfnd@2@@shdfnd@physx@@IBEIXZ 1000cd00 f i Quantizer.obj
 0001:0000bd40       ?clear@?$Array@VPxVec3@physx@@VNamedAllocator@shdfnd@2@@shdfnd@physx@@QAEXXZ 1000cd40 f i Quantizer.obj
 0001:0000bd70       ?copy@?$Array@VPxVec3@physx@@VNamedAllocator@shdfnd@2@@shdfnd@physx@@KAXPAVPxVec3@3@0PBV43@@Z 1000cd70 f i Quantizer.obj
 0001:0000bdc0       ?deallocate@?$Array@VPxVec3@physx@@VNamedAllocator@shdfnd@2@@shdfnd@physx@@IAEXPAX@Z 1000cdc0 f i Quantizer.obj
 0001:0000bde0       ?destroy@?$Array@VPxVec3@physx@@VNamedAllocator@shdfnd@2@@shdfnd@physx@@KAXPAVPxVec3@3@0@Z 1000cde0 f i Quantizer.obj
 0001:0000be00       ?getCenter@PxBounds3@physx@@QBE?AVPxVec3@2@XZ 1000ce00 f i Quantizer.obj
 0001:0000be70       ?getDenormalizeCenter@QuantizerImpl@@UBEABVPxVec3@physx@@XZ 1000ce70 f i Quantizer.obj
 0001:0000be90       ?getDenormalizeScale@QuantizerImpl@@UBEABVPxVec3@physx@@XZ 1000ce90 f i Quantizer.obj
 0001:0000beb0       ?getDimensions@PxBounds3@physx@@QBE?AVPxVec3@2@XZ 1000ceb0 f i Quantizer.obj
 0001:0000bf00       ?getName@?$ReflectionAllocator@VQuantizerImpl@@@shdfnd@physx@@CAPBDXZ 1000cf00 f i Quantizer.obj
 0001:0000bf40       ?growAndPushBack@?$Array@VPxVec3@physx@@VNamedAllocator@shdfnd@2@@shdfnd@physx@@IAEAAVPxVec3@3@ABV43@@Z 1000cf40 f i Quantizer.obj
 0001:0000c060       ?include@PxBounds3@physx@@QAEXABVPxVec3@2@@Z 1000d060 f i Quantizer.obj
 0001:0000c0d0       ?isFinite@PxBounds3@physx@@QBE_NXZ 1000d0d0 f i Quantizer.obj
 0001:0000c120       ?isFinite@PxVec3@physx@@QBE_NXZ 1000d120 f i Quantizer.obj
 0001:0000c1a0       ?isFinite@intrinsics@physx@@YA_NM@Z 1000d1a0 f i Quantizer.obj
 0001:0000c1e0       ?isInUserMemory@?$Array@VPxVec3@physx@@VNamedAllocator@shdfnd@2@@shdfnd@physx@@QBEIXZ 1000d1e0 f i Quantizer.obj
 0001:0000c200       ?isValid@PxBounds3@physx@@QBE_NXZ 1000d200 f i Quantizer.obj
 0001:0000c2f0       ?kmeansQuantize3D@QuantizerImpl@@UAEPBVPxVec3@physx@@IPBV23@I_NIAAI@Z 1000d2f0 f i Quantizer.obj
 0001:0000c4e0       ?maximum@PxVec3@physx@@QBE?AV12@ABV12@@Z 1000d4e0 f i Quantizer.obj
 0001:0000c570       ?minimum@PxVec3@physx@@QBE?AV12@ABV12@@Z 1000d570 f i Quantizer.obj
 0001:0000c600       ?multiply@PxVec3@physx@@QBE?AV12@ABV12@@Z 1000d600 f i Quantizer.obj
 0001:0000c660       ?normalizeInput@QuantizerImpl@@AAEXIPBVPxVec3@physx@@I@Z 1000d660 f i Quantizer.obj
 0001:0000c850       ?pushBack@?$Array@VPxVec3@physx@@VNamedAllocator@shdfnd@2@@shdfnd@physx@@QAEAAVPxVec3@3@ABV43@@Z 1000d850 f i Quantizer.obj
 0001:0000c8d0       ?release@QuantizerImpl@@UAEXXZ 1000d8d0 f i Quantizer.obj
 0001:0000c910       ?selectMax@intrinsics@physx@@YAMMM@Z 1000d910 f i Quantizer.obj
 0001:0000c940       ?selectMin@intrinsics@physx@@YAMMM@Z 1000d940 f i Quantizer.obj
 0001:0000c970       ?setEmpty@PxBounds3@physx@@QAEXXZ 1000d970 f i Quantizer.obj
 0001:0000c9d0       ??0BVHStructureBuilder@physx@@QAE@XZ 1000d9d0 f   BVHStructureBuilder.obj
 0001:0000ca10       ??1BVHStructureBuilder@physx@@QAE@XZ 1000da10 f   BVHStructureBuilder.obj
 0001:0000ca90       ?loadFromDesc@BVHStructureBuilder@physx@@QAE_NABVPxBVHStructureDesc@2@@Z 1000da90 f   BVHStructureBuilder.obj
 0001:0000ccc0       ?save@BVHStructureBuilder@physx@@QBE_NAAVPxOutputStream@2@_N@Z 1000dcc0 f   BVHStructureBuilder.obj
 0001:0000ce50       ?moveData@BVHStructureBuilder@physx@@QAEXAAUBVHStructureData@Gu@2@@Z 1000de50 f   BVHStructureBuilder.obj
 0001:0000ced0       ?flatten@@YAXABVNodeAllocator@Gu@physx@@PAUBVHNode@23@@Z 1000ded0 f   BVHStructureBuilder.obj
 0001:0000d120       ??$?4VNamedAllocator@shdfnd@physx@@@?$Array@USlab@NodeAllocator@Gu@physx@@VNamedAllocator@shdfnd@4@@shdfnd@physx@@QAEAAV012@ABV012@@Z 1000e120 f i BVHStructureBuilder.obj
 0001:0000d190       ??$PX_UNUSED@_N@@YAXAB_N@Z 1000e190 f i BVHStructureBuilder.obj
 0001:0000d1a0       ??$copy@VNamedAllocator@shdfnd@physx@@@?$Array@USlab@NodeAllocator@Gu@physx@@VNamedAllocator@shdfnd@4@@shdfnd@physx@@IAEXABV012@@Z 1000e1a0 f i BVHStructureBuilder.obj
 0001:0000d230       ??0?$Array@USlab@NodeAllocator@Gu@physx@@VNamedAllocator@shdfnd@4@@shdfnd@physx@@QAE@ABV012@ABVNamedAllocator@12@@Z 1000e230 f i BVHStructureBuilder.obj
 0001:0000d260       ??0AABBTreeBuildNode@Gu@physx@@QAE@ABV012@@Z 1000e260 f i BVHStructureBuilder.obj
 0001:0000d2a0       ??0AABBTreeBuildNode@Gu@physx@@QAE@XZ 1000e2a0 f i BVHStructureBuilder.obj
 0001:0000d2c0       ??0AABBTreeBuildParams@Gu@physx@@QAE@IIPBVPxBounds3@2@@Z 1000e2c0 f i BVHStructureBuilder.obj
 0001:0000d300       ??0BuildStats@Gu@physx@@QAE@XZ 1000e300 f i BVHStructureBuilder.obj
 0001:0000d330       ??0NodeAllocator@Gu@physx@@QAE@ABV012@@Z 1000e330 f i BVHStructureBuilder.obj
 0001:0000d390       ??0PxBounds3@physx@@QAE@ABV01@@Z 1000e390 f i BVHStructureBuilder.obj
 0001:0000d3c0       ??0PxVec4@physx@@QAE@XZ    1000e3c0 f i BVHStructureBuilder.obj
 0001:0000d3d0       ??1AABBTreeBuildNode@Gu@physx@@QAE@XZ 1000e3d0 f i BVHStructureBuilder.obj
 0001:0000d3e0       ??1AABBTreeBuildParams@Gu@physx@@QAE@XZ 1000e3e0 f i BVHStructureBuilder.obj
 0001:0000d400       ??4?$Array@USlab@NodeAllocator@Gu@physx@@VNamedAllocator@shdfnd@4@@shdfnd@physx@@QAEAAV012@ABV012@@Z 1000e400 f i BVHStructureBuilder.obj
 0001:0000d420       ??4AABBTreeBuildNode@Gu@physx@@QAEAAV012@ABV012@@Z 1000e420 f i BVHStructureBuilder.obj
 0001:0000d460       ??4AABBTreeBuildParams@Gu@physx@@QAEAAV012@ABV012@@Z 1000e460 f i BVHStructureBuilder.obj
 0001:0000d490       ??4BuildStats@Gu@physx@@QAEAAU012@$$QAU012@@Z 1000e490 f i BVHStructureBuilder.obj
 0001:0000d4c0       ??4BuildStats@Gu@physx@@QAEAAU012@ABU012@@Z 1000e4c0 f i BVHStructureBuilder.obj
 0001:0000d4e0       ??4NodeAllocator@Gu@physx@@QAEAAV012@ABV012@@Z 1000e4e0 f i BVHStructureBuilder.obj
 0001:0000d530       ??4PxBounds3@physx@@QAEAAV01@ABV01@@Z 1000e530 f i BVHStructureBuilder.obj
 0001:0000d560       ??A?$Array@USlab@NodeAllocator@Gu@physx@@VNamedAllocator@shdfnd@4@@shdfnd@physx@@QBEABUSlab@NodeAllocator@Gu@2@I@Z 1000e560 f i BVHStructureBuilder.obj
 0001:0000d5c0       ??_FAABBTreeBuildParams@Gu@physx@@QAEXXZ 1000e5c0 f i BVHStructureBuilder.obj
 0001:0000d5e0       ?V4Add@aos@shdfnd@physx@@YA?AT__m128@@T4@0@Z 1000e5e0 f i BVHStructureBuilder.obj
 0001:0000d620       ?V4LoadU@aos@shdfnd@physx@@YA?AT__m128@@QBM@Z 1000e620 f i BVHStructureBuilder.obj
 0001:0000d650       ?V4Scale@aos@shdfnd@physx@@YA?AT__m128@@T4@0@Z 1000e650 f i BVHStructureBuilder.obj
 0001:0000d690       ?V4StoreA@aos@shdfnd@physx@@YAXT__m128@@PAM@Z 1000e690 f i BVHStructureBuilder.obj
 0001:0000d710       ?V4StoreU@aos@shdfnd@physx@@YAXT__m128@@PAM@Z 1000e710 f i BVHStructureBuilder.obj
 0001:0000d740       ?V4Sub@aos@shdfnd@physx@@YA?AT__m128@@T4@0@Z 1000e740 f i BVHStructureBuilder.obj
 0001:0000d780       ?__global_array_delete@@YAXPAX@Z 1000e780 f i BVHStructureBuilder.obj
 0001:0000d7a0       ?__global_array_delete@@YAXPAXI@Z 1000e7a0 f i BVHStructureBuilder.obj
 0001:0000d7c0       ?__global_delete@@YAXPAX@Z 1000e7c0 f i BVHStructureBuilder.obj
 0001:0000d7e0       ?__global_delete@@YAXPAXI@Z 1000e7e0 f i BVHStructureBuilder.obj
 0001:0000d800       ?allocate@?$Array@USlab@NodeAllocator@Gu@physx@@VNamedAllocator@shdfnd@4@@shdfnd@physx@@IAEPAUSlab@NodeAllocator@Gu@3@I@Z 1000e800 f i BVHStructureBuilder.obj
 0001:0000d870       ?begin@?$Array@USlab@NodeAllocator@Gu@physx@@VNamedAllocator@shdfnd@4@@shdfnd@physx@@QBEPBUSlab@NodeAllocator@Gu@3@XZ 1000e870 f i BVHStructureBuilder.obj
 0001:0000d880       ?capacity@?$Array@USlab@NodeAllocator@Gu@physx@@VNamedAllocator@shdfnd@4@@shdfnd@physx@@QBEIXZ 1000e880 f i BVHStructureBuilder.obj
 0001:0000d8a0       ?clear@?$Array@USlab@NodeAllocator@Gu@physx@@VNamedAllocator@shdfnd@4@@shdfnd@physx@@QAEXXZ 1000e8a0 f i BVHStructureBuilder.obj
 0001:0000d8d0       ?copy@?$Array@USlab@NodeAllocator@Gu@physx@@VNamedAllocator@shdfnd@4@@shdfnd@physx@@KAXPAUSlab@NodeAllocator@Gu@3@0PBU4563@@Z 1000e8d0 f i BVHStructureBuilder.obj
 0001:0000d930       ?deallocate@?$Array@USlab@NodeAllocator@Gu@physx@@VNamedAllocator@shdfnd@4@@shdfnd@physx@@IAEXPAX@Z 1000e930 f i BVHStructureBuilder.obj
 0001:0000d950       ?destroy@?$Array@USlab@NodeAllocator@Gu@physx@@VNamedAllocator@shdfnd@4@@shdfnd@physx@@KAXPAUSlab@NodeAllocator@Gu@3@0@Z 1000e950 f i BVHStructureBuilder.obj
 0001:0000d970       ?empty@?$Array@USlab@NodeAllocator@Gu@physx@@VNamedAllocator@shdfnd@4@@shdfnd@physx@@QBE_NXZ 1000e970 f i BVHStructureBuilder.obj
 0001:0000d9a0       ?getAABB@AABBTreeBuildNode@Gu@physx@@QBEABVPxBounds3@3@XZ 1000e9a0 f i BVHStructureBuilder.obj
 0001:0000d9b0       ?getCount@BuildStats@Gu@physx@@QBEIXZ 1000e9b0 f i BVHStructureBuilder.obj
 0001:0000d9c0       ?getNbPrimitives@AABBTreeBuildNode@Gu@physx@@QBEIXZ 1000e9c0 f i BVHStructureBuilder.obj
 0001:0000d9e0       ?getNbRuntimePrimitives@AABBTreeBuildNode@Gu@physx@@QBEIXZ 1000e9e0 f i BVHStructureBuilder.obj
 0001:0000da00       ?getNeg@AABBTreeBuildNode@Gu@physx@@QBEPBV123@XZ 1000ea00 f i BVHStructureBuilder.obj
 0001:0000da40       ?getPos@AABBTreeBuildNode@Gu@physx@@QBEPBV123@XZ 1000ea40 f i BVHStructureBuilder.obj
 0001:0000da60       ?getPrimitives@AABBTreeBuildNode@Gu@physx@@QAEPAIPAI@Z 1000ea60 f i BVHStructureBuilder.obj
 0001:0000da80       ?getPrimitives@AABBTreeBuildNode@Gu@physx@@QBEPBIPBI@Z 1000ea80 f i BVHStructureBuilder.obj
 0001:0000daa0       ?grow@?$Array@USlab@NodeAllocator@Gu@physx@@VNamedAllocator@shdfnd@4@@shdfnd@physx@@IAEXI@Z 1000eaa0 f i BVHStructureBuilder.obj
 0001:0000db00       ?increaseCount@BuildStats@Gu@physx@@QAEXI@Z 1000eb00 f i BVHStructureBuilder.obj
 0001:0000db20       ?inflateBounds@@YAXAAVPxBounds3@physx@@ABV12@@Z 1000eb20 f i BVHStructureBuilder.obj
 0001:0000dc50       ?isAligned16@aos@shdfnd@physx@@YA_NPAX@Z 1000ec50 f i BVHStructureBuilder.obj
 0001:0000dc80       ?isInUserMemory@?$Array@USlab@NodeAllocator@Gu@physx@@VNamedAllocator@shdfnd@4@@shdfnd@physx@@QBEIXZ 1000ec80 f i BVHStructureBuilder.obj
 0001:0000dca0       ?isLeaf@AABBTreeBuildNode@Gu@physx@@QBE_NXZ 1000eca0 f i BVHStructureBuilder.obj
 0001:0000dcd0       ?recreate@?$Array@USlab@NodeAllocator@Gu@physx@@VNamedAllocator@shdfnd@4@@shdfnd@physx@@IAEXI@Z 1000ecd0 f i BVHStructureBuilder.obj
 0001:0000dda0       ?reserve@?$Array@USlab@NodeAllocator@Gu@physx@@VNamedAllocator@shdfnd@4@@shdfnd@physx@@QAEXI@Z 1000eda0 f i BVHStructureBuilder.obj
 0001:0000ddd0       ?reset@AABBTreeBuildParams@Gu@physx@@QAEXXZ 1000edd0 f i BVHStructureBuilder.obj
 0001:0000de20       ?reset@BuildStats@Gu@physx@@QAEXXZ 1000ee20 f i BVHStructureBuilder.obj
 0001:0000de40       ?setCount@BuildStats@Gu@physx@@QAEXI@Z 1000ee40 f i BVHStructureBuilder.obj
 0001:0000de60       ?setNbRunTimePrimitives@AABBTreeBuildNode@Gu@physx@@QAEXI@Z 1000ee60 f i BVHStructureBuilder.obj
 0001:0000de80       ?size@?$Array@USlab@NodeAllocator@Gu@physx@@VNamedAllocator@shdfnd@4@@shdfnd@physx@@QBEIXZ 1000ee80 f i BVHStructureBuilder.obj
 0001:0000dea0       ?saveHeightField@physx@@YA_NABVHeightField@Gu@1@AAVPxOutputStream@1@_N@Z 1000eea0 f   HeightFieldCooking.obj
 0001:0000e180       ??APxVec3@physx@@QBEABMI@Z 1000f180 f i HeightFieldCooking.obj
 0001:0000e1c0       ??B?$PxFlags@W4Enum@PxHeightFieldFlag@physx@@G@physx@@QBEGXZ 1000f1c0 f i HeightFieldCooking.obj
 0001:0000e1e0       ?getData@HeightField@Gu@physx@@QBEABUHeightFieldData@23@XZ 1000f1e0 f i HeightFieldCooking.obj
 0001:0000e200       ?getMax@CenterExtents@Gu@physx@@QBEMI@Z 1000f200 f i HeightFieldCooking.obj
 0001:0000e240       ?getMin@CenterExtents@Gu@physx@@QBEMI@Z 1000f240 f i HeightFieldCooking.obj
 0001:0000e280       ?buildFromTriangles@RTreeCooker@physx@@SAXAAURTree@Gu@2@PBVPxVec3@2@IPBGPBIIAAV?$Array@IVNamedAllocator@shdfnd@physx@@@shdfnd@2@PAURemapCallback@12@MW4Enum@PxMeshCookingHint@2@@Z 1000f280 f   RTreeCooking.obj
 0001:0000f200       ??$PX_UNUSED@I@@YAXABI@Z   10010200 f i RTreeCooking.obj
 0001:0000f210       ??$PX_UNUSED@M@@YAXABM@Z   10010210 f i RTreeCooking.obj
 0001:0000f220       ??$PX_UNUSED@PAURTreeNodeNQ@physx@@@@YAXABQAURTreeNodeNQ@physx@@@Z 10010220 f i RTreeCooking.obj
 0001:0000f230       ??$PX_UNUSED@URTreeNodeNQ@physx@@@@YAXABURTreeNodeNQ@physx@@@Z 10010230 f i RTreeCooking.obj
 0001:0000f240       ??$PxMax@H@physx@@YAHHH@Z  10010240 f i RTreeCooking.obj
 0001:0000f270       ??$PxMin@I@physx@@YAIII@Z  10010270 f i RTreeCooking.obj
 0001:0000f2a0       ??$median3@I$$CBU?$Less@I@shdfnd@physx@@@internal@shdfnd@physx@@YAXPAIHHABU?$Less@I@12@@Z 100102a0 f i RTreeCooking.obj
 0001:0000f390       ??$median3@I$$CBUSortBoundsPredicate@physx@@@internal@shdfnd@physx@@YAXPAIHHABUSortBoundsPredicate@2@@Z 10010390 f i RTreeCooking.obj
 0001:0000f480       ??$partition@I$$CBU?$Less@I@shdfnd@physx@@@internal@shdfnd@physx@@YAHPAIHHABU?$Less@I@12@@Z 10010480 f i RTreeCooking.obj
 0001:0000f5e0       ??$partition@I$$CBUSortBoundsPredicate@physx@@@internal@shdfnd@physx@@YAHPAIHHABUSortBoundsPredicate@2@@Z 100105e0 f i RTreeCooking.obj
 0001:0000f740       ??$partition@UBoundsLTE@physx@@@quickSelect@physx@@YAIPIAIIIIABUBoundsLTE@1@@Z 10010740 f i RTreeCooking.obj
 0001:0000f950       ??$quickSelectFirstK@UBoundsLTE@physx@@@quickSelect@physx@@YAXPIAIIIIABUBoundsLTE@1@@Z 10010950 f i RTreeCooking.obj
 0001:0000fa40       ??$smallSort@I$$CBU?$Less@I@shdfnd@physx@@@internal@shdfnd@physx@@YAXPAIHHABU?$Less@I@12@@Z 10010a40 f i RTreeCooking.obj
 0001:0000fae0       ??$smallSort@I$$CBUSortBoundsPredicate@physx@@@internal@shdfnd@physx@@YAXPAIHHABUSortBoundsPredicate@2@@Z 10010ae0 f i RTreeCooking.obj
 0001:0000fb80       ??$sort@I@shdfnd@physx@@YAXPAII@Z 10010b80 f i RTreeCooking.obj
 0001:0000fbc0       ??$sort@IU?$Less@I@shdfnd@physx@@VNamedAllocator@23@@shdfnd@physx@@YAXPAIIABU?$Less@I@01@ABVNamedAllocator@01@I@Z 10010bc0 f i RTreeCooking.obj
 0001:0000fdf0       ??$sort@IUSortBoundsPredicate@physx@@@shdfnd@physx@@YAXPAIIABUSortBoundsPredicate@1@@Z 10010df0 f i RTreeCooking.obj
 0001:0000fe30       ??$sort@IUSortBoundsPredicate@physx@@VNamedAllocator@shdfnd@2@@shdfnd@physx@@YAXPAIIABUSortBoundsPredicate@1@ABVNamedAllocator@01@I@Z 10010e30 f i RTreeCooking.obj
 0001:00010060       ??0?$AlignedAllocator@$0IA@VNonTrackingAllocator@shdfnd@physx@@@shdfnd@physx@@QAE@ABVNonTrackingAllocator@12@@Z 10011060 f i RTreeCooking.obj
 0001:00010070       ??0?$Array@IVNamedAllocator@shdfnd@physx@@@shdfnd@physx@@QAE@IABIABVNamedAllocator@12@@Z 10011070 f i RTreeCooking.obj
 0001:000100c0       ??0?$Array@UInterval@physx@@V?$InlineAllocator@$0CAAA@VNamedAllocator@shdfnd@physx@@@shdfnd@2@@shdfnd@physx@@QAE@ABV?$InlineAllocator@$0CAAA@VNamedAllocator@shdfnd@physx@@@12@@Z 100110c0 f i RTreeCooking.obj
 0001:00010110       ??0?$Array@UPxBounds3V@physx@@VNamedAllocator@shdfnd@2@@shdfnd@physx@@QAE@ABVNamedAllocator@12@@Z 10011110 f i RTreeCooking.obj
 0001:00010150       ??0?$Array@URTreeNodeNQ@physx@@VNamedAllocator@shdfnd@2@@shdfnd@physx@@QAE@ABVNamedAllocator@12@@Z 10011150 f i RTreeCooking.obj
 0001:00010190       ??0?$Array@URTreeNodeQ@Gu@physx@@VNamedAllocator@shdfnd@3@@shdfnd@physx@@QAE@ABVNamedAllocator@12@@Z 10011190 f i RTreeCooking.obj
 0001:000101d0       ??0?$InlineAllocator@$0CAAA@VNamedAllocator@shdfnd@physx@@@shdfnd@physx@@QAE@ABV012@@Z 100111d0 f i RTreeCooking.obj
 0001:00010200       ??0?$InlineAllocator@$0CAAA@VNamedAllocator@shdfnd@physx@@@shdfnd@physx@@QAE@ABVNamedAllocator@12@@Z 10011200 f i RTreeCooking.obj
 0001:00010230       ??0?$InlineArray@UInterval@physx@@$0EAA@VNamedAllocator@shdfnd@2@@shdfnd@physx@@QAE@ABVNamedAllocator@12@@Z 10011230 f i RTreeCooking.obj
 0001:000102a0       ??0?$ScopedPointer@HVTempAllocator@shdfnd@physx@@@shdfnd@physx@@QAE@XZ 100112a0 f i RTreeCooking.obj
 0001:000102c0       ??0?$Stack@VNamedAllocator@shdfnd@physx@@@internal@shdfnd@physx@@QAE@PAHIABVNamedAllocator@23@@Z 100112c0 f i RTreeCooking.obj
 0001:00010300       ??0BoundsLTE@physx@@QAE@IPBVPxVec3@1@@Z 10011300 f i RTreeCooking.obj
 0001:00010330       ??0Interval@physx@@QAE@II@Z 10011330 f i RTreeCooking.obj
 0001:00010360       ??0PxBounds3@physx@@QAE@ABVPxVec3@1@0@Z 10011360 f i RTreeCooking.obj
 0001:00010390       ??0PxBounds3V@physx@@QAE@AAT__m128@@0@Z 10011390 f i RTreeCooking.obj
 0001:000103c0       ??0PxBounds3V@physx@@QAE@UU@01@@Z 100113c0 f i RTreeCooking.obj
 0001:000103d0       ??0PxVec4@physx@@QAE@ABVPxVec3@1@M@Z 100113d0 f i RTreeCooking.obj
 0001:00010410       ??0PxVec4@physx@@QAE@M@Z   10011410 f i RTreeCooking.obj
 0001:00010460       ??0RTreeNodeNQ@physx@@QAE@ABU01@@Z 10011460 f i RTreeCooking.obj
 0001:000104a0       ??0RTreeNodeNQ@physx@@QAE@XZ 100114a0 f i RTreeCooking.obj
 0001:000104d0       ??0SortBoundsPredicate@physx@@QAE@IPBUPxBounds3V@1@@Z 100114d0 f i RTreeCooking.obj
 0001:00010500       ??0SubSortQuick@physx@@QAE@PAIPBUPxBounds3V@1@IM@Z 10011500 f i RTreeCooking.obj
 0001:00010620       ??0SubSortSAH@physx@@QAE@PAIPBUPxBounds3V@1@IPBI22222M@Z 10011620 f i RTreeCooking.obj
 0001:000107a0       ??0TempAllocator@shdfnd@physx@@QAE@PBD@Z 100117a0 f i RTreeCooking.obj
 0001:000107b0       ??1?$Array@IVNamedAllocator@shdfnd@physx@@@shdfnd@physx@@QAE@XZ 100117b0 f i RTreeCooking.obj
 0001:00010810       ??1?$Array@UInterval@physx@@V?$InlineAllocator@$0CAAA@VNamedAllocator@shdfnd@physx@@@shdfnd@2@@shdfnd@physx@@QAE@XZ 10011810 f i RTreeCooking.obj
 0001:00010880       ??1?$Array@UPxBounds3V@physx@@VNamedAllocator@shdfnd@2@@shdfnd@physx@@QAE@XZ 10011880 f i RTreeCooking.obj
 0001:000108e0       ??1?$Array@URTreeNodeNQ@physx@@VNamedAllocator@shdfnd@2@@shdfnd@physx@@QAE@XZ 100118e0 f i RTreeCooking.obj
 0001:00010940       ??1?$Array@URTreeNodeQ@Gu@physx@@VNamedAllocator@shdfnd@3@@shdfnd@physx@@QAE@XZ 10011940 f i RTreeCooking.obj
 0001:000109a0       ??1?$InlineAllocator@$0CAAA@VNamedAllocator@shdfnd@physx@@@shdfnd@physx@@QAE@XZ 100119a0 f i RTreeCooking.obj
 0001:000109c0       ??1?$InlineArray@UInterval@physx@@$0EAA@VNamedAllocator@shdfnd@2@@shdfnd@physx@@QAE@XZ 100119c0 f i RTreeCooking.obj
 0001:000109e0       ??1?$ScopedPointer@HVTempAllocator@shdfnd@physx@@@shdfnd@physx@@QAE@XZ 100119e0 f i RTreeCooking.obj
 0001:00010a10       ??1?$Stack@VNamedAllocator@shdfnd@physx@@@internal@shdfnd@physx@@QAE@XZ 10011a10 f i RTreeCooking.obj
 0001:00010a40       ??1SubSortQuick@physx@@QAE@XZ 10011a40 f i RTreeCooking.obj
 0001:00010a60       ??1SubSortSAH@physx@@QAE@XZ 10011a60 f i RTreeCooking.obj
 0001:00010b00       ??4PxVec4@physx@@QAEAAV01@ABV01@@Z 10011b00 f i RTreeCooking.obj
 0001:00010b40       ??A?$Array@IVNamedAllocator@shdfnd@physx@@@shdfnd@physx@@QAEAAII@Z 10011b40 f i RTreeCooking.obj
 0001:00010ba0       ??A?$Array@UInterval@physx@@V?$InlineAllocator@$0CAAA@VNamedAllocator@shdfnd@physx@@@shdfnd@2@@shdfnd@physx@@QAEAAUInterval@2@I@Z 10011ba0 f i RTreeCooking.obj
 0001:00010c00       ??A?$Array@URTreeNodeNQ@physx@@VNamedAllocator@shdfnd@2@@shdfnd@physx@@QAEAAURTreeNodeNQ@2@I@Z 10011c00 f i RTreeCooking.obj
 0001:00010c60       ??A?$Array@URTreeNodeQ@Gu@physx@@VNamedAllocator@shdfnd@3@@shdfnd@physx@@QAEAAURTreeNodeQ@Gu@2@I@Z 10011c60 f i RTreeCooking.obj
 0001:00010cc0       ??B?$ScopedPointer@HVTempAllocator@shdfnd@physx@@@shdfnd@physx@@QBEPAHXZ 10011cc0 f i RTreeCooking.obj
 0001:00010cd0       ??GPxVec4@physx@@QBE?AV01@ABV01@@Z 10011cd0 f i RTreeCooking.obj
 0001:00010d40       ??KPxVec4@physx@@QBE?AV01@M@Z 10011d40 f i RTreeCooking.obj
 0001:00010dc0       ??R?$Less@I@shdfnd@physx@@QBE_NABI0@Z 10011dc0 f i RTreeCooking.obj
 0001:00010df0       ??RBoundsLTE@physx@@QBE_NABI0@Z 10011df0 f i RTreeCooking.obj
 0001:00010e60       ??RSortBoundsPredicate@physx@@QBE_NABI0@Z 10011e60 f i RTreeCooking.obj
 0001:00010f50       ?FMax@aos@shdfnd@physx@@YA?AT__m128@@XZ 10011f50 f i RTreeCooking.obj
 0001:00010f90       ?FNegMax@aos@shdfnd@physx@@YA?AT__m128@@XZ 10011f90 f i RTreeCooking.obj
 0001:00010fd0       ?FStore@aos@shdfnd@physx@@YAXT__m128@@PIAM@Z 10011fd0 f i RTreeCooking.obj
 0001:00011050       ?PxAbs@physx@@YAHH@Z       10012050 f i RTreeCooking.obj
 0001:00011070       ?V3Add@aos@shdfnd@physx@@YA?AT__m128@@T4@0@Z 10012070 f i RTreeCooking.obj
 0001:00011130       ?V3Dot@aos@shdfnd@physx@@YA?AT__m128@@T4@0@Z 10012130 f i RTreeCooking.obj
 0001:00011260       ?V3LoadU@aos@shdfnd@physx@@YA?AT__m128@@ABVPxVec3@3@@Z 10012260 f i RTreeCooking.obj
 0001:000112b0       ?V3Max@aos@shdfnd@physx@@YA?AT__m128@@T4@0@Z 100122b0 f i RTreeCooking.obj
 0001:00011370       ?V3Min@aos@shdfnd@physx@@YA?AT__m128@@T4@0@Z 10012370 f i RTreeCooking.obj
 0001:00011430       ?V3PermZXY@aos@shdfnd@physx@@YA?AT__m128@@T4@@Z 10012430 f i RTreeCooking.obj
 0001:000114b0       ?V3ReadXYZ@aos@shdfnd@physx@@YAABVPxVec3@3@ABT__m128@@@Z 100124b0 f i RTreeCooking.obj
 0001:000114c0       ?V3Splat@aos@shdfnd@physx@@YA?AT__m128@@T4@@Z 100124c0 f i RTreeCooking.obj
 0001:00011570       ?V3StoreA@aos@shdfnd@physx@@YAXT__m128@@AAVPxVec3@3@@Z 10012570 f i RTreeCooking.obj
 0001:00011630       ?V3StoreU@aos@shdfnd@physx@@YAXT__m128@@AAVPxVec3@3@@Z 10012630 f i RTreeCooking.obj
 0001:000116b0       ?V3Sub@aos@shdfnd@physx@@YA?AT__m128@@T4@0@Z 100126b0 f i RTreeCooking.obj
 0001:00011770       ?V3Zero@aos@shdfnd@physx@@YA?AT__m128@@XZ 10012770 f i RTreeCooking.obj
 0001:000117a0       ?V4ClearW@aos@shdfnd@physx@@YA?AT__m128@@T4@@Z 100127a0 f i RTreeCooking.obj
 0001:000117e0       ?V4ReadW@aos@shdfnd@physx@@YAMABT__m128@@@Z 100127e0 f i RTreeCooking.obj
 0001:000117f0       ?V4ReadX@aos@shdfnd@physx@@YAMABT__m128@@@Z 100127f0 f i RTreeCooking.obj
 0001:00011800       ?V4ReadY@aos@shdfnd@physx@@YAMABT__m128@@@Z 10012800 f i RTreeCooking.obj
 0001:00011810       ?V4ReadZ@aos@shdfnd@physx@@YAMABT__m128@@@Z 10012810 f i RTreeCooking.obj
 0001:00011820       ?Vec3V_From_FloatV@aos@shdfnd@physx@@YA?AT__m128@@T4@@Z 10012820 f i RTreeCooking.obj
 0001:00011870       ?Vec3V_From_Vec4V@aos@shdfnd@physx@@YA?AT__m128@@T4@@Z 10012870 f i RTreeCooking.obj
 0001:000118b0       ?Vec4V_From_FloatV@aos@shdfnd@physx@@YA?AT__m128@@T4@@Z 100128b0 f i RTreeCooking.obj
 0001:000118e0       ?allocate@?$AlignedAllocator@$0IA@VNonTrackingAllocator@shdfnd@physx@@@shdfnd@physx@@QAEPAXIPBDH@Z 100128e0 f i RTreeCooking.obj
 0001:00011940       ?allocate@?$Array@IVNamedAllocator@shdfnd@physx@@@shdfnd@physx@@IAEPAII@Z 10012940 f i RTreeCooking.obj
 0001:000119b0       ?allocate@?$Array@UInterval@physx@@V?$InlineAllocator@$0CAAA@VNamedAllocator@shdfnd@physx@@@shdfnd@2@@shdfnd@physx@@IAEPAUInterval@3@I@Z 100129b0 f i RTreeCooking.obj
 0001:00011a20       ?allocate@?$Array@UPxBounds3V@physx@@VNamedAllocator@shdfnd@2@@shdfnd@physx@@IAEPAUPxBounds3V@3@I@Z 10012a20 f i RTreeCooking.obj
 0001:00011a90       ?allocate@?$Array@URTreeNodeNQ@physx@@VNamedAllocator@shdfnd@2@@shdfnd@physx@@IAEPAURTreeNodeNQ@3@I@Z 10012a90 f i RTreeCooking.obj
 0001:00011b00       ?allocate@?$Array@URTreeNodeQ@Gu@physx@@VNamedAllocator@shdfnd@3@@shdfnd@physx@@IAEPAURTreeNodeQ@Gu@3@I@Z 10012b00 f i RTreeCooking.obj
 0001:00011b70       ?allocate@?$InlineAllocator@$0CAAA@VNamedAllocator@shdfnd@physx@@@shdfnd@physx@@QAEPAXIPBDH@Z 10012b70 f i RTreeCooking.obj
 0001:00011bc0       ?allocate@NonTrackingAllocator@shdfnd@physx@@QAEPAXIPBDH@Z 10012bc0 f i RTreeCooking.obj
 0001:00011c10       ?begin@?$Array@IVNamedAllocator@shdfnd@physx@@@shdfnd@physx@@QAEPAIXZ 10012c10 f i RTreeCooking.obj
 0001:00011c20       ?begin@?$Array@UPxBounds3V@physx@@VNamedAllocator@shdfnd@2@@shdfnd@physx@@QAEPAUPxBounds3V@3@XZ 10012c20 f i RTreeCooking.obj
 0001:00011c30       ?begin@?$Array@VPxVec3@physx@@VNamedAllocator@shdfnd@2@@shdfnd@physx@@QAEPAVPxVec3@3@XZ 10012c30 f i RTreeCooking.obj
 0001:00011c40       ?capacity@?$Array@IVNamedAllocator@shdfnd@physx@@@shdfnd@physx@@QBEIXZ 10012c40 f i RTreeCooking.obj
 0001:00011c60       ?capacity@?$Array@UInterval@physx@@V?$InlineAllocator@$0CAAA@VNamedAllocator@shdfnd@physx@@@shdfnd@2@@shdfnd@physx@@QBEIXZ 10012c60 f i RTreeCooking.obj
 0001:00011c80       ?capacity@?$Array@UPxBounds3V@physx@@VNamedAllocator@shdfnd@2@@shdfnd@physx@@QBEIXZ 10012c80 f i RTreeCooking.obj
 0001:00011ca0       ?capacity@?$Array@URTreeNodeNQ@physx@@VNamedAllocator@shdfnd@2@@shdfnd@physx@@QBEIXZ 10012ca0 f i RTreeCooking.obj
 0001:00011cc0       ?capacity@?$Array@URTreeNodeQ@Gu@physx@@VNamedAllocator@shdfnd@3@@shdfnd@physx@@QBEIXZ 10012cc0 f i RTreeCooking.obj
 0001:00011ce0       ?capacityIncrement@?$Array@IVNamedAllocator@shdfnd@physx@@@shdfnd@physx@@IBEIXZ 10012ce0 f i RTreeCooking.obj
 0001:00011d20       ?capacityIncrement@?$Array@UInterval@physx@@V?$InlineAllocator@$0CAAA@VNamedAllocator@shdfnd@physx@@@shdfnd@2@@shdfnd@physx@@IBEIXZ 10012d20 f i RTreeCooking.obj
 0001:00011d60       ?capacityIncrement@?$Array@UPxBounds3V@physx@@VNamedAllocator@shdfnd@2@@shdfnd@physx@@IBEIXZ 10012d60 f i RTreeCooking.obj
 0001:00011da0       ?capacityIncrement@?$Array@URTreeNodeNQ@physx@@VNamedAllocator@shdfnd@2@@shdfnd@physx@@IBEIXZ 10012da0 f i RTreeCooking.obj
 0001:00011de0       ?capacityIncrement@?$Array@URTreeNodeQ@Gu@physx@@VNamedAllocator@shdfnd@3@@shdfnd@physx@@IBEIXZ 10012de0 f i RTreeCooking.obj
 0001:00011e20       ?computeSA@SubSortSAH@physx@@QAEMPBIABUInterval@2@@Z 10012e20 f i RTreeCooking.obj
 0001:00011f50       ?copy@?$Array@IVNamedAllocator@shdfnd@physx@@@shdfnd@physx@@KAXPAI0PBI@Z 10012f50 f i RTreeCooking.obj
 0001:00011fa0       ?copy@?$Array@UInterval@physx@@V?$InlineAllocator@$0CAAA@VNamedAllocator@shdfnd@physx@@@shdfnd@2@@shdfnd@physx@@KAXPAUInterval@3@0PBU43@@Z 10012fa0 f i RTreeCooking.obj
 0001:00012000       ?copy@?$Array@UPxBounds3V@physx@@VNamedAllocator@shdfnd@2@@shdfnd@physx@@KAXPAUPxBounds3V@3@0PBU43@@Z 10013000 f i RTreeCooking.obj
 0001:00012060       ?copy@?$Array@URTreeNodeNQ@physx@@VNamedAllocator@shdfnd@2@@shdfnd@physx@@KAXPAURTreeNodeNQ@3@0PBU43@@Z 10013060 f i RTreeCooking.obj
 0001:000120b0       ?copy@?$Array@URTreeNodeQ@Gu@physx@@VNamedAllocator@shdfnd@3@@shdfnd@physx@@KAXPAURTreeNodeQ@Gu@3@0PBU453@@Z 100130b0 f i RTreeCooking.obj
 0001:00012110       ?create@?$Array@IVNamedAllocator@shdfnd@physx@@@shdfnd@physx@@KAXPAI0ABI@Z 10013110 f i RTreeCooking.obj
 0001:00012150       ?deallocate@?$Array@IVNamedAllocator@shdfnd@physx@@@shdfnd@physx@@IAEXPAX@Z 10013150 f i RTreeCooking.obj
 0001:00012170       ?deallocate@?$Array@UInterval@physx@@V?$InlineAllocator@$0CAAA@VNamedAllocator@shdfnd@physx@@@shdfnd@2@@shdfnd@physx@@IAEXPAX@Z 10013170 f i RTreeCooking.obj
 0001:00012190       ?deallocate@?$Array@UPxBounds3V@physx@@VNamedAllocator@shdfnd@2@@shdfnd@physx@@IAEXPAX@Z 10013190 f i RTreeCooking.obj
 0001:000121b0       ?deallocate@?$Array@URTreeNodeNQ@physx@@VNamedAllocator@shdfnd@2@@shdfnd@physx@@IAEXPAX@Z 100131b0 f i RTreeCooking.obj
 0001:000121d0       ?deallocate@?$Array@URTreeNodeQ@Gu@physx@@VNamedAllocator@shdfnd@3@@shdfnd@physx@@IAEXPAX@Z 100131d0 f i RTreeCooking.obj
 0001:000121f0       ?deallocate@?$InlineAllocator@$0CAAA@VNamedAllocator@shdfnd@physx@@@shdfnd@physx@@QAEXPAX@Z 100131f0 f i RTreeCooking.obj
 0001:00012220       ?destroy@?$Array@IVNamedAllocator@shdfnd@physx@@@shdfnd@physx@@KAXPAI0@Z 10013220 f i RTreeCooking.obj
 0001:00012240       ?destroy@?$Array@UInterval@physx@@V?$InlineAllocator@$0CAAA@VNamedAllocator@shdfnd@physx@@@shdfnd@2@@shdfnd@physx@@KAXPAUInterval@3@0@Z 10013240 f i RTreeCooking.obj
 0001:00012260       ?destroy@?$Array@UPxBounds3V@physx@@VNamedAllocator@shdfnd@2@@shdfnd@physx@@KAXPAUPxBounds3V@3@0@Z 10013260 f i RTreeCooking.obj
 0001:00012280       ?destroy@?$Array@URTreeNodeNQ@physx@@VNamedAllocator@shdfnd@2@@shdfnd@physx@@KAXPAURTreeNodeNQ@3@0@Z 10013280 f i RTreeCooking.obj
 0001:000122a0       ?destroy@?$Array@URTreeNodeQ@Gu@physx@@VNamedAllocator@shdfnd@3@@shdfnd@physx@@KAXPAURTreeNodeQ@Gu@3@0@Z 100132a0 f i RTreeCooking.obj
 0001:000122c0       ?empty@?$Stack@VNamedAllocator@shdfnd@physx@@@internal@shdfnd@physx@@QAE_NXZ 100132c0 f i RTreeCooking.obj
 0001:000122f0       ?empty@PxBounds3@physx@@SA?AV12@XZ 100132f0 f i RTreeCooking.obj
 0001:00012340       ?getExtents@PxBounds3V@physx@@QBE?AT__m128@@XZ 10013340 f i RTreeCooking.obj
 0001:00012390       ?getMaxVec3@PxBounds3V@physx@@QBE?BVPxVec3@2@XZ 10013390 f i RTreeCooking.obj
 0001:000123d0       ?getMinVec3@PxBounds3V@physx@@QBE?BVPxVec3@2@XZ 100133d0 f i RTreeCooking.obj
 0001:00012410       ?grow@?$Array@IVNamedAllocator@shdfnd@physx@@@shdfnd@physx@@IAEXI@Z 10013410 f i RTreeCooking.obj
 0001:00012470       ?grow@?$Array@UPxBounds3V@physx@@VNamedAllocator@shdfnd@2@@shdfnd@physx@@IAEXI@Z 10013470 f i RTreeCooking.obj
 0001:000124d0       ?grow@?$Array@URTreeNodeNQ@physx@@VNamedAllocator@shdfnd@2@@shdfnd@physx@@IAEXI@Z 100134d0 f i RTreeCooking.obj
 0001:00012530       ?grow@?$Array@URTreeNodeQ@Gu@physx@@VNamedAllocator@shdfnd@3@@shdfnd@physx@@IAEXI@Z 10013530 f i RTreeCooking.obj
 0001:00012590       ?grow@?$Array@VPxVec3@physx@@VNamedAllocator@shdfnd@2@@shdfnd@physx@@IAEXI@Z 10013590 f i RTreeCooking.obj
 0001:000125f0       ?grow@?$Stack@VNamedAllocator@shdfnd@physx@@@internal@shdfnd@physx@@QAEXXZ 100135f0 f i RTreeCooking.obj
 0001:00012680       ?growAndPushBack@?$Array@IVNamedAllocator@shdfnd@physx@@@shdfnd@physx@@IAEAAIABI@Z 10013680 f i RTreeCooking.obj
 0001:000127b0       ?growAndPushBack@?$Array@UInterval@physx@@V?$InlineAllocator@$0CAAA@VNamedAllocator@shdfnd@physx@@@shdfnd@2@@shdfnd@physx@@IAEAAUInterval@3@ABU43@@Z 100137b0 f i RTreeCooking.obj
 0001:00012910       ?growAndPushBack@?$Array@UPxBounds3V@physx@@VNamedAllocator@shdfnd@2@@shdfnd@physx@@IAEAAUPxBounds3V@3@ABU43@@Z 10013910 f i RTreeCooking.obj
 0001:00012a40       ?growAndPushBack@?$Array@URTreeNodeNQ@physx@@VNamedAllocator@shdfnd@2@@shdfnd@physx@@IAEAAURTreeNodeNQ@3@ABU43@@Z 10013a40 f i RTreeCooking.obj
 0001:00012b70       ?growAndPushBack@?$Array@URTreeNodeQ@Gu@physx@@VNamedAllocator@shdfnd@3@@shdfnd@physx@@IAEAAURTreeNodeQ@Gu@3@ABU453@@Z 10013b70 f i RTreeCooking.obj
 0001:00012c90       ?include@PxBounds3V@physx@@QAEXABU12@@Z 10013c90 f i RTreeCooking.obj
 0001:00012d00       ?isInUserMemory@?$Array@IVNamedAllocator@shdfnd@physx@@@shdfnd@physx@@QBEIXZ 10013d00 f i RTreeCooking.obj
 0001:00012d20       ?isInUserMemory@?$Array@UInterval@physx@@V?$InlineAllocator@$0CAAA@VNamedAllocator@shdfnd@physx@@@shdfnd@2@@shdfnd@physx@@QBEIXZ 10013d20 f i RTreeCooking.obj
 0001:00012d40       ?isInUserMemory@?$Array@UPxBounds3V@physx@@VNamedAllocator@shdfnd@2@@shdfnd@physx@@QBEIXZ 10013d40 f i RTreeCooking.obj
 0001:00012d60       ?isInUserMemory@?$Array@URTreeNodeNQ@physx@@VNamedAllocator@shdfnd@2@@shdfnd@physx@@QBEIXZ 10013d60 f i RTreeCooking.obj
 0001:00012d80       ?isInUserMemory@?$Array@URTreeNodeQ@Gu@physx@@VNamedAllocator@shdfnd@3@@shdfnd@physx@@QBEIXZ 10013d80 f i RTreeCooking.obj
 0001:00012da0       ?isInside@PxBounds3@physx@@QBE_NABV12@@Z 10013da0 f i RTreeCooking.obj
 0001:00012e70       ?isLeaf@RTreeNodeQ@Gu@physx@@QBEIXZ 10013e70 f i RTreeCooking.obj
 0001:00012e90       ?isValidFloatV@aos@shdfnd@physx@@YA_NT__m128@@@Z 10013e90 f i RTreeCooking.obj
 0001:00013010       ?isValidVec3V@aos@shdfnd@physx@@YA_NT__m128@@@Z 10014010 f i RTreeCooking.obj
 0001:00013080       ?pop@?$Stack@VNamedAllocator@shdfnd@physx@@@internal@shdfnd@physx@@QAEXAAH0@Z 10014080 f i RTreeCooking.obj
 0001:00013120       ?popBack@?$Array@IVNamedAllocator@shdfnd@physx@@@shdfnd@physx@@QAEIXZ 10014120 f i RTreeCooking.obj
 0001:000131a0       ?push@?$Stack@VNamedAllocator@shdfnd@physx@@@internal@shdfnd@physx@@QAEXHH@Z 100141a0 f i RTreeCooking.obj
 0001:00013210       ?pushBack@?$Array@IVNamedAllocator@shdfnd@physx@@@shdfnd@physx@@QAEAAIABI@Z 10014210 f i RTreeCooking.obj
 0001:00013290       ?pushBack@?$Array@UInterval@physx@@V?$InlineAllocator@$0CAAA@VNamedAllocator@shdfnd@physx@@@shdfnd@2@@shdfnd@physx@@QAEAAUInterval@3@ABU43@@Z 10014290 f i RTreeCooking.obj
 0001:00013330       ?pushBack@?$Array@UPxBounds3V@physx@@VNamedAllocator@shdfnd@2@@shdfnd@physx@@QAEAAUPxBounds3V@3@ABU43@@Z 10014330 f i RTreeCooking.obj
 0001:000133b0       ?pushBack@?$Array@URTreeNodeNQ@physx@@VNamedAllocator@shdfnd@2@@shdfnd@physx@@QAEAAURTreeNodeNQ@3@ABU43@@Z 100143b0 f i RTreeCooking.obj
 0001:00013430       ?pushBack@?$Array@URTreeNodeQ@Gu@physx@@VNamedAllocator@shdfnd@3@@shdfnd@physx@@QAEAAURTreeNodeQ@Gu@3@ABU453@@Z 10014430 f i RTreeCooking.obj
 0001:000134b0       ?recreate@?$Array@IVNamedAllocator@shdfnd@physx@@@shdfnd@physx@@IAEXI@Z 100144b0 f i RTreeCooking.obj
 0001:00013580       ?recreate@?$Array@UPxBounds3V@physx@@VNamedAllocator@shdfnd@2@@shdfnd@physx@@IAEXI@Z 10014580 f i RTreeCooking.obj
 0001:00013650       ?recreate@?$Array@URTreeNodeNQ@physx@@VNamedAllocator@shdfnd@2@@shdfnd@physx@@IAEXI@Z 10014650 f i RTreeCooking.obj
 0001:00013720       ?recreate@?$Array@URTreeNodeQ@Gu@physx@@VNamedAllocator@shdfnd@3@@shdfnd@physx@@IAEXI@Z 10014720 f i RTreeCooking.obj
 0001:000137f0       ?recreate@?$Array@VPxVec3@physx@@VNamedAllocator@shdfnd@2@@shdfnd@physx@@IAEXI@Z 100147f0 f i RTreeCooking.obj
 0001:000138c0       ?replaceWithLast@?$Array@UInterval@physx@@V?$InlineAllocator@$0CAAA@VNamedAllocator@shdfnd@physx@@@shdfnd@2@@shdfnd@physx@@QAEXI@Z 100148c0 f i RTreeCooking.obj
 0001:00013960       ?reserve@?$Array@IVNamedAllocator@shdfnd@physx@@@shdfnd@physx@@QAEXI@Z 10014960 f i RTreeCooking.obj
 0001:00013990       ?reserve@?$Array@UPxBounds3V@physx@@VNamedAllocator@shdfnd@2@@shdfnd@physx@@QAEXI@Z 10014990 f i RTreeCooking.obj
 0001:000139c0       ?reserve@?$Array@URTreeNodeNQ@physx@@VNamedAllocator@shdfnd@2@@shdfnd@physx@@QAEXI@Z 100149c0 f i RTreeCooking.obj
 0001:000139f0       ?reserve@?$Array@URTreeNodeQ@Gu@physx@@VNamedAllocator@shdfnd@3@@shdfnd@physx@@QAEXI@Z 100149f0 f i RTreeCooking.obj
 0001:00013a20       ?reserve@?$Array@VPxVec3@physx@@VNamedAllocator@shdfnd@2@@shdfnd@physx@@QAEXI@Z 10014a20 f i RTreeCooking.obj
 0001:00013a50       ?resize@?$Array@IVNamedAllocator@shdfnd@physx@@@shdfnd@physx@@QAEXIABI@Z 10014a50 f i RTreeCooking.obj
 0001:00013ac0       ?resizeUninitialized@?$Array@URTreeNodeNQ@physx@@VNamedAllocator@shdfnd@2@@shdfnd@physx@@QAEXI@Z 10014ac0 f i RTreeCooking.obj
 0001:00013af0       ?setLeaf@RTreeNodeQ@Gu@physx@@QAEX_N@Z 10014af0 f i RTreeCooking.obj
 0001:00013b30       ?size@?$Array@IVNamedAllocator@shdfnd@physx@@@shdfnd@physx@@QBEIXZ 10014b30 f i RTreeCooking.obj
 0001:00013b50       ?size@?$Array@UInterval@physx@@V?$InlineAllocator@$0CAAA@VNamedAllocator@shdfnd@physx@@@shdfnd@2@@shdfnd@physx@@QBEIXZ 10014b50 f i RTreeCooking.obj
 0001:00013b70       ?size@?$Array@URTreeNodeNQ@physx@@VNamedAllocator@shdfnd@2@@shdfnd@physx@@QBEIXZ 10014b70 f i RTreeCooking.obj
 0001:00013b90       ?size@?$Array@URTreeNodeQ@Gu@physx@@VNamedAllocator@shdfnd@3@@shdfnd@physx@@QBEIXZ 10014b90 f i RTreeCooking.obj
 0001:00013bb0       ?size@?$Array@VPxVec3@physx@@VNamedAllocator@shdfnd@2@@shdfnd@physx@@QBEIXZ 10014bb0 f i RTreeCooking.obj
 0001:00013bd0       ?sort4@SubSortQuick@physx@@QAEXPIAIIAAV?$Array@URTreeNodeNQ@physx@@VNamedAllocator@shdfnd@2@@shdfnd@2@AAIAAUPxBounds3V@2@I@Z 10014bd0 f i RTreeCooking.obj
 0001:00014290       ?sort4@SubSortSAH@physx@@QAEXPAIIAAV?$Array@URTreeNodeNQ@physx@@VNamedAllocator@shdfnd@2@@shdfnd@2@AAIIPAURTreeNodeNQ@2@@Z 10015290 f i RTreeCooking.obj
 0001:00014d70       ?split@SubSortSAH@physx@@QAEIPAII@Z 10015d70 f i RTreeCooking.obj
 0001:00015760       ?computeLocalBounds@MeshBulider@physx@@IAEXAAVMeshDataBase@Gu@2@@Z 10016760 f   MeshBuilder.obj
 0001:00015860       _powf                      10016860 f i MeshBuilder.obj
 0001:00015890       ??0TriangleMeshBuilder@physx@@QAE@AAVTriangleMeshData@Gu@1@ABUPxCookingParams@1@@Z 10016890 f   TriangleMeshBuilder.obj
 0001:000158d0       ??1TriangleMeshBuilder@physx@@UAE@XZ 100168d0 f   TriangleMeshBuilder.obj
 0001:000158f0       ?cleanMesh@TriangleMeshBuilder@physx@@QAE_N_NPAW4Enum@PxTriangleMeshCookingResult@2@@Z 100168f0 f   TriangleMeshBuilder.obj
 0001:00015e80       ?remapTopology@TriangleMeshBuilder@physx@@QAEXPBI@Z 10016e80 f   TriangleMeshBuilder.obj
 0001:00016120       ?createSharedEdgeData@TriangleMeshBuilder@physx@@QAEX_N0@Z 10017120 f   TriangleMeshBuilder.obj
 0001:00016700       ?recordTriangleIndices@TriangleMeshBuilder@physx@@QAEXXZ 10017700 f   TriangleMeshBuilder.obj
 0001:00016850       ?createGRBMidPhaseAndData@TriangleMeshBuilder@physx@@QAEXI@Z 10017850 f   TriangleMeshBuilder.obj
 0001:00016aa0       ?createGRBData@TriangleMeshBuilder@physx@@QAEXXZ 10017aa0 f   TriangleMeshBuilder.obj
 0001:00016bb0       ?loadFromDesc@TriangleMeshBuilder@physx@@QAE_NABVPxTriangleMeshDesc@2@PAW4Enum@PxTriangleMeshCookingResult@2@_N@Z 10017bb0 f   TriangleMeshBuilder.obj
 0001:00016db0       ?save@TriangleMeshBuilder@physx@@QBE_NAAVPxOutputStream@2@_NABUPxCookingParams@2@@Z 10017db0 f   TriangleMeshBuilder.obj
 0001:00017420       ?checkMeshIndicesSize@TriangleMeshBuilder@physx@@QAEXXZ 10018420 f   TriangleMeshBuilder.obj
 0001:000175b0       ?importMesh@TriangleMeshBuilder@physx@@IAE_NABVPxTriangleMeshDesc@2@ABUPxCookingParams@2@PAW4Enum@PxTriangleMeshCookingResult@2@_N@Z 100185b0 f   TriangleMeshBuilder.obj
 0001:00017a20       ?releaseEdgeList@TriangleMeshBuilder@physx@@IAEXXZ 10018a20 f   TriangleMeshBuilder.obj
 0001:00017a60       ?createEdgeList@TriangleMeshBuilder@physx@@IAEXXZ 10018a60 f   TriangleMeshBuilder.obj
 0001:00017b60       ??0RTreeTriangleMeshBuilder@physx@@QAE@ABUPxCookingParams@1@@Z 10018b60 f   TriangleMeshBuilder.obj
 0001:00017ba0       ??1RTreeTriangleMeshBuilder@physx@@UAE@XZ 10018ba0 f   TriangleMeshBuilder.obj
 0001:00017bd0       ?createMidPhaseStructure@RTreeTriangleMeshBuilder@physx@@UAEXXZ 10018bd0 f   TriangleMeshBuilder.obj
 0001:00017d30       ?saveMidPhaseStructure@RTreeTriangleMeshBuilder@physx@@UBEXAAVPxOutputStream@2@_N@Z 10018d30 f   TriangleMeshBuilder.obj
 0001:00017f90       ??0BV4TriangleMeshBuilder@physx@@QAE@ABUPxCookingParams@1@@Z 10018f90 f   TriangleMeshBuilder.obj
 0001:00017fd0       ??1BV4TriangleMeshBuilder@physx@@UAE@XZ 10018fd0 f   TriangleMeshBuilder.obj
 0001:00018000       ?createMidPhaseStructure@BV4TriangleMeshBuilder@physx@@UAEXXZ 10019000 f   TriangleMeshBuilder.obj
 0001:00018310       ?saveMidPhaseStructure@BV4TriangleMeshBuilder@physx@@UBEXAAVPxOutputStream@2@_N@Z 10019310 f   TriangleMeshBuilder.obj
 0001:00018560       ?onMeshIndexFormatChange@BV4TriangleMeshBuilder@physx@@UAEXXZ 10019560 f   TriangleMeshBuilder.obj
 0001:000185d0       ?createMidPhaseStructure@BV32TriangleMeshBuilder@physx@@SAXABUPxCookingParams@2@AAVTriangleMeshData@Gu@2@AAVBV32Tree@52@@Z 100195d0 f   TriangleMeshBuilder.obj
 0001:000187d0       ?saveMidPhaseStructure@BV32TriangleMeshBuilder@physx@@SAXPAVBV32Tree@Gu@2@AAVPxOutputStream@2@_N@Z 100197d0 f   TriangleMeshBuilder.obj
 0001:00018f20       ?findSharpVertices@GrbTrimeshCookerHelper@physx@@YAXAAV?$Array@USortedNeighbor@GrbTrimeshCookerHelper@physx@@VNamedAllocator@shdfnd@3@@shdfnd@2@AAV?$Array@USharpEdgeRange@GrbTrimeshCookerHelper@physx@@VNamedAllocator@shdfnd@3@@42@PBUuint3@2@PBUuint4@2@II@Z 10019f20 f   TriangleMeshBuilder.obj
 0001:000192b0       ?buildVertexConnectionNew_p1@GrbTrimeshCookerHelper@physx@@YAIAAV?$Array@USortedNeighbor@GrbTrimeshCookerHelper@physx@@VNamedAllocator@shdfnd@3@@shdfnd@2@AAV?$Array@USharpEdgeRange@GrbTrimeshCookerHelper@physx@@VNamedAllocator@shdfnd@3@@42@PBUuint3@2@PBUuint4@2@II@Z 1001a2b0 f   TriangleMeshBuilder.obj
 0001:00019320       ?buildVertexConnectionNew_p2@GrbTrimeshCookerHelper@physx@@YAXPAI00AAV?$Array@USortedNeighbor@GrbTrimeshCookerHelper@physx@@VNamedAllocator@shdfnd@3@@shdfnd@2@AAV?$Array@USharpEdgeRange@GrbTrimeshCookerHelper@physx@@VNamedAllocator@shdfnd@3@@42@I@Z 1001a320 f   TriangleMeshBuilder.obj
 0001:000193c0       ??$?2V?$ReflectionAllocator@VBV32Tree@Gu@physx@@@shdfnd@physx@@@UserAllocated@shdfnd@physx@@SAPAXIV?$ReflectionAllocator@VBV32Tree@Gu@physx@@@12@PBDH@Z 1001a3c0 f i TriangleMeshBuilder.obj
 0001:000193e0       ??$?2V?$ReflectionAllocator@VEdgeListBuilder@Gu@physx@@@shdfnd@physx@@@UserAllocated@shdfnd@physx@@SAPAXIV?$ReflectionAllocator@VEdgeListBuilder@Gu@physx@@@12@PBDH@Z 1001a3e0 f i TriangleMeshBuilder.obj
 0001:00019400       ??$?_UE@@YAPAXIV?$ReflectionAllocator@E@shdfnd@physx@@PBDH@Z 1001a400 f i TriangleMeshBuilder.obj
 0001:00019420       ??$?_UG@@YAPAXIV?$ReflectionAllocator@G@shdfnd@physx@@PBDH@Z 1001a420 f i TriangleMeshBuilder.obj
 0001:00019440       ??$PX_UNUSED@U?$TriangleT@I@Gu@physx@@@@YAXABU?$TriangleT@I@Gu@physx@@@Z 1001a440 f i TriangleMeshBuilder.obj
 0001:00019450       ??$median3@UEdgeTriLookup@physx@@$$CBU?$Less@UEdgeTriLookup@physx@@@shdfnd@2@@internal@shdfnd@physx@@YAXPAUEdgeTriLookup@2@HHABU?$Less@UEdgeTriLookup@physx@@@12@@Z 1001a450 f i TriangleMeshBuilder.obj
 0001:00019530       ??$median3@USortedNeighbor@GrbTrimeshCookerHelper@physx@@$$CBU?$Less@USortedNeighbor@GrbTrimeshCookerHelper@physx@@@shdfnd@3@@internal@shdfnd@physx@@YAXPAUSortedNeighbor@GrbTrimeshCookerHelper@2@HHABU?$Less@USortedNeighbor@GrbTrimeshCookerHelper@physx@@@12@@Z 1001a530 f i TriangleMeshBuilder.obj
 0001:00019610       ??$partition@UEdgeTriLookup@physx@@$$CBU?$Less@UEdgeTriLookup@physx@@@shdfnd@2@@internal@shdfnd@physx@@YAHPAUEdgeTriLookup@2@HHABU?$Less@UEdgeTriLookup@physx@@@12@@Z 1001a610 f i TriangleMeshBuilder.obj
 0001:00019770       ??$partition@USortedNeighbor@GrbTrimeshCookerHelper@physx@@$$CBU?$Less@USortedNeighbor@GrbTrimeshCookerHelper@physx@@@shdfnd@3@@internal@shdfnd@physx@@YAHPAUSortedNeighbor@GrbTrimeshCookerHelper@2@HHABU?$Less@USortedNeighbor@GrbTrimeshCookerHelper@physx@@@12@@Z 1001a770 f i TriangleMeshBuilder.obj
 0001:000198d0       ??$smallSort@UEdgeTriLookup@physx@@$$CBU?$Less@UEdgeTriLookup@physx@@@shdfnd@2@@internal@shdfnd@physx@@YAXPAUEdgeTriLookup@2@HHABU?$Less@UEdgeTriLookup@physx@@@12@@Z 1001a8d0 f i TriangleMeshBuilder.obj
 0001:00019960       ??$smallSort@USortedNeighbor@GrbTrimeshCookerHelper@physx@@$$CBU?$Less@USortedNeighbor@GrbTrimeshCookerHelper@physx@@@shdfnd@3@@internal@shdfnd@physx@@YAXPAUSortedNeighbor@GrbTrimeshCookerHelper@2@HHABU?$Less@USortedNeighbor@GrbTrimeshCookerHelper@physx@@@12@@Z 1001a960 f i TriangleMeshBuilder.obj
 0001:000199f0       ??$sort@UEdgeTriLookup@physx@@@shdfnd@physx@@YAXPAUEdgeTriLookup@1@I@Z 1001a9f0 f i TriangleMeshBuilder.obj
 0001:00019a30       ??$sort@UEdgeTriLookup@physx@@U?$Less@UEdgeTriLookup@physx@@@shdfnd@2@VNamedAllocator@42@@shdfnd@physx@@YAXPAUEdgeTriLookup@1@IABU?$Less@UEdgeTriLookup@physx@@@01@ABVNamedAllocator@01@I@Z 1001aa30 f i TriangleMeshBuilder.obj
 0001:00019c60       ??$sort@USortedNeighbor@GrbTrimeshCookerHelper@physx@@@shdfnd@physx@@YAXPAUSortedNeighbor@GrbTrimeshCookerHelper@1@I@Z 1001ac60 f i TriangleMeshBuilder.obj
 0001:00019ca0       ??$sort@USortedNeighbor@GrbTrimeshCookerHelper@physx@@U?$Less@USortedNeighbor@GrbTrimeshCookerHelper@physx@@@shdfnd@3@VNamedAllocator@53@@shdfnd@physx@@YAXPAUSortedNeighbor@GrbTrimeshCookerHelper@1@IABU?$Less@USortedNeighbor@GrbTrimeshCookerHelper@physx@@@01@ABVNamedAllocator@01@I@Z 1001aca0 f i TriangleMeshBuilder.obj
 0001:00019ed0       ??$swap@UEdgeTriLookup@physx@@@shdfnd@physx@@YAXAAUEdgeTriLookup@1@0@Z 1001aed0 f i TriangleMeshBuilder.obj
 0001:00019f20       ??$swap@USortedNeighbor@GrbTrimeshCookerHelper@physx@@@shdfnd@physx@@YAXAAUSortedNeighbor@GrbTrimeshCookerHelper@1@0@Z 1001af20 f i TriangleMeshBuilder.obj
 0001:00019f70       ??0?$Array@IVNamedAllocator@shdfnd@physx@@@shdfnd@physx@@QAE@ABVNamedAllocator@12@@Z 1001af70 f i TriangleMeshBuilder.obj
 0001:00019fb0       ??0?$PxFlags@W4Enum@PxMeshFlag@physx@@G@physx@@QAE@W4Enum@PxMeshFlag@1@@Z 1001afb0 f i TriangleMeshBuilder.obj
 0001:00019fd0       ??0?$PxFlags@W4Enum@PxMeshFlag@physx@@G@physx@@QAE@XZ 1001afd0 f i TriangleMeshBuilder.obj
 0001:00019ff0       ??0?$ReflectionAllocator@E@shdfnd@physx@@QAE@PBD@Z 1001aff0 f i TriangleMeshBuilder.obj
 0001:0001a000       ??0?$ReflectionAllocator@G@shdfnd@physx@@QAE@PBD@Z 1001b000 f i TriangleMeshBuilder.obj
 0001:0001a010       ??0?$ReflectionAllocator@VBV32Tree@Gu@physx@@@shdfnd@physx@@QAE@PBD@Z 1001b010 f i TriangleMeshBuilder.obj
 0001:0001a020       ??0?$ReflectionAllocator@VEdgeListBuilder@Gu@physx@@@shdfnd@physx@@QAE@PBD@Z 1001b020 f i TriangleMeshBuilder.obj
 0001:0001a030       ??0BV4TriangleData@Gu@physx@@QAE@XZ 1001b030 f i TriangleMeshBuilder.obj
 0001:0001a070       ??0MeshDataBase@Gu@physx@@QAE@XZ 1001b070 f i TriangleMeshBuilder.obj
 0001:0001a0f0       ??0PxPlane@physx@@QAE@ABVPxVec3@1@0@Z 1001b0f0 f i TriangleMeshBuilder.obj
 0001:0001a140       ??0PxSimpleTriangleMesh@physx@@QAE@ABV01@@Z 1001b140 f i TriangleMeshBuilder.obj
 0001:0001a1a0       ??0PxTriangleMeshDesc@physx@@QAE@ABV01@@Z 1001b1a0 f i TriangleMeshBuilder.obj
 0001:0001a1d0       ??0RTree@Gu@physx@@QAE@XZ  1001b1d0 f i TriangleMeshBuilder.obj
 0001:0001a240       ??0RTreeCookerRemap@physx@@QAE@I@Z 1001b240 f i TriangleMeshBuilder.obj
 0001:0001a270       ??0RTreeTriangleData@Gu@physx@@QAE@XZ 1001b270 f i TriangleMeshBuilder.obj
 0001:0001a2b0       ??0RemapCallback@RTreeCooker@physx@@QAE@XZ 1001b2b0 f i TriangleMeshBuilder.obj
 0001:0001a2d0       ??0SharpEdgeRange@GrbTrimeshCookerHelper@physx@@QAE@II@Z 1001b2d0 f i TriangleMeshBuilder.obj
 0001:0001a300       ??0SharpEdgeRange@GrbTrimeshCookerHelper@physx@@QAE@XZ 1001b300 f i TriangleMeshBuilder.obj
 0001:0001a330       ??0SortedNeighbor@GrbTrimeshCookerHelper@physx@@QAE@II_N@Z 1001b330 f i TriangleMeshBuilder.obj
 0001:0001a360       ??0TriangleMeshData@Gu@physx@@QAE@XZ 1001b360 f i TriangleMeshBuilder.obj
 0001:0001a3c0       ??1BV4TriangleData@Gu@physx@@UAE@XZ 1001b3c0 f i TriangleMeshBuilder.obj
 0001:0001a400       ??1MeshDataBase@Gu@physx@@UAE@XZ 1001b400 f i TriangleMeshBuilder.obj
 0001:0001a510       ??1RTree@Gu@physx@@QAE@XZ  1001b510 f i TriangleMeshBuilder.obj
 0001:0001a530       ??1RTreeCookerRemap@physx@@UAE@XZ 1001b530 f i TriangleMeshBuilder.obj
 0001:0001a550       ??1RTreeTriangleData@Gu@physx@@UAE@XZ 1001b550 f i TriangleMeshBuilder.obj
 0001:0001a580       ??1RemapCallback@RTreeCooker@physx@@UAE@XZ 1001b580 f i TriangleMeshBuilder.obj
 0001:0001a5a0       ??1TriangleMeshData@Gu@physx@@UAE@XZ 1001b5a0 f i TriangleMeshBuilder.obj
 0001:0001a680       ??A?$Array@USharpEdgeRange@GrbTrimeshCookerHelper@physx@@VNamedAllocator@shdfnd@3@@shdfnd@physx@@QAEAAUSharpEdgeRange@GrbTrimeshCookerHelper@2@I@Z 1001b680 f i TriangleMeshBuilder.obj
 0001:0001a6e0       ??A?$Array@USortedNeighbor@GrbTrimeshCookerHelper@physx@@VNamedAllocator@shdfnd@3@@shdfnd@physx@@QAEAAUSortedNeighbor@GrbTrimeshCookerHelper@2@I@Z 1001b6e0 f i TriangleMeshBuilder.obj
 0001:0001a740       ??MEdgeTriLookup@physx@@QBE_NABU01@@Z 1001b740 f i TriangleMeshBuilder.obj
 0001:0001a790       ??MSortedNeighbor@GrbTrimeshCookerHelper@physx@@QBE_NABU012@@Z 1001b790 f i TriangleMeshBuilder.obj
 0001:0001a810       ??NEdgeTriLookup@physx@@QBE_NABU01@@Z 1001b810 f i TriangleMeshBuilder.obj
 0001:0001a860       ??R?$Less@UEdgeTriLookup@physx@@@shdfnd@physx@@QBE_NABUEdgeTriLookup@2@0@Z 1001b860 f i TriangleMeshBuilder.obj
 0001:0001a880       ??R?$Less@USortedNeighbor@GrbTrimeshCookerHelper@physx@@@shdfnd@physx@@QBE_NABUSortedNeighbor@GrbTrimeshCookerHelper@2@0@Z 1001b880 f i TriangleMeshBuilder.obj
 0001:0001a8a0       ??S?$PxFlags@W4Enum@PxMeshFlag@physx@@G@physx@@QBE?AV01@XZ 1001b8a0 f i TriangleMeshBuilder.obj
 0001:0001a8e0       ??Sphysx@@YA?AV?$PxFlags@W4Enum@PxMeshFlag@physx@@G@0@W4Enum@PxMeshFlag@0@@Z 1001b8e0 f i TriangleMeshBuilder.obj
 0001:0001a910       ??_4?$PxFlags@W4Enum@PxMeshFlag@physx@@G@physx@@QAEAAV01@ABV01@@Z 1001b910 f i TriangleMeshBuilder.obj
 0001:0001a940       ??_GBV32Tree@Gu@physx@@QAEPAXI@Z 1001b940 f i TriangleMeshBuilder.obj
 0001:0001a990       ??_EBV4TriangleData@Gu@physx@@UAEPAXI@Z 1001b990 f i TriangleMeshBuilder.obj
 0001:0001a990       ??_GBV4TriangleData@Gu@physx@@UAEPAXI@Z 1001b990 f i TriangleMeshBuilder.obj
 0001:0001a9e0       ??_EBV4TriangleMeshBuilder@physx@@UAEPAXI@Z 1001b9e0 f i TriangleMeshBuilder.obj
 0001:0001a9e0       ??_GBV4TriangleMeshBuilder@physx@@UAEPAXI@Z 1001b9e0 f i TriangleMeshBuilder.obj
 0001:0001aa20       ??_GEdgeListBuilder@Gu@physx@@QAEPAXI@Z 1001ba20 f i TriangleMeshBuilder.obj
 0001:0001aa70       ??_GMeshDataBase@Gu@physx@@UAEPAXI@Z 1001ba70 f i TriangleMeshBuilder.obj
 0001:0001aa70       ??_EMeshDataBase@Gu@physx@@UAEPAXI@Z 1001ba70 f i TriangleMeshBuilder.obj
 0001:0001aac0       ??_ERTreeCookerRemap@physx@@UAEPAXI@Z 1001bac0 f i TriangleMeshBuilder.obj
 0001:0001aac0       ??_GRTreeCookerRemap@physx@@UAEPAXI@Z 1001bac0 f i TriangleMeshBuilder.obj
 0001:0001aaf0       ??_ERTreeTriangleData@Gu@physx@@UAEPAXI@Z 1001baf0 f i TriangleMeshBuilder.obj
 0001:0001aaf0       ??_GRTreeTriangleData@Gu@physx@@UAEPAXI@Z 1001baf0 f i TriangleMeshBuilder.obj
 0001:0001ab40       ??_ERTreeTriangleMeshBuilder@physx@@UAEPAXI@Z 1001bb40 f i TriangleMeshBuilder.obj
 0001:0001ab40       ??_GRTreeTriangleMeshBuilder@physx@@UAEPAXI@Z 1001bb40 f i TriangleMeshBuilder.obj
 0001:0001ab80       ??_GRemapCallback@RTreeCooker@physx@@UAEPAXI@Z 1001bb80 f i TriangleMeshBuilder.obj
 0001:0001ab80       ??_ERemapCallback@RTreeCooker@physx@@UAEPAXI@Z 1001bb80 f i TriangleMeshBuilder.obj
 0001:0001abb0       ??_GTriangleMeshBuilder@physx@@UAEPAXI@Z 1001bbb0 f i TriangleMeshBuilder.obj
 0001:0001abb0       ??_ETriangleMeshBuilder@physx@@UAEPAXI@Z 1001bbb0 f i TriangleMeshBuilder.obj
 0001:0001abe0       ??_GTriangleMeshData@Gu@physx@@UAEPAXI@Z 1001bbe0 f i TriangleMeshBuilder.obj
 0001:0001abe0       ??_ETriangleMeshData@Gu@physx@@UAEPAXI@Z 1001bbe0 f i TriangleMeshBuilder.obj
 0001:0001ac30       ?LeafSetData@Gu@physx@@YAIII@Z 1001bc30 f i TriangleMeshBuilder.obj
 0001:0001acd0       ?SetData@LeafTriangles@Gu@physx@@QAEXII@Z 1001bcd0 f i TriangleMeshBuilder.obj
 0001:0001ad00       ?WriteDwordBuffer@physx@@YAXPBII_NAAVPxOutputStream@1@@Z 1001bd00 f i TriangleMeshBuilder.obj
 0001:0001ad20       ?allocate@?$Array@USharpEdgeRange@GrbTrimeshCookerHelper@physx@@VNamedAllocator@shdfnd@3@@shdfnd@physx@@IAEPAUSharpEdgeRange@GrbTrimeshCookerHelper@3@I@Z 1001bd20 f i TriangleMeshBuilder.obj
 0001:0001ad90       ?allocate@?$Array@USortedNeighbor@GrbTrimeshCookerHelper@physx@@VNamedAllocator@shdfnd@3@@shdfnd@physx@@IAEPAUSortedNeighbor@GrbTrimeshCookerHelper@3@I@Z 1001bd90 f i TriangleMeshBuilder.obj
 0001:0001ae00       ?allocate@?$ReflectionAllocator@E@shdfnd@physx@@QAEPAXIPBDH@Z 1001be00 f i TriangleMeshBuilder.obj
 0001:0001ae50       ?allocate@?$ReflectionAllocator@G@shdfnd@physx@@QAEPAXIPBDH@Z 1001be50 f i TriangleMeshBuilder.obj
 0001:0001aea0       ?allocate@?$ReflectionAllocator@VBV32Tree@Gu@physx@@@shdfnd@physx@@QAEPAXIPBDH@Z 1001bea0 f i TriangleMeshBuilder.obj
 0001:0001aef0       ?allocate@?$ReflectionAllocator@VEdgeListBuilder@Gu@physx@@@shdfnd@physx@@QAEPAXIPBDH@Z 1001bef0 f i TriangleMeshBuilder.obj
 0001:0001af40       ?allocateMaterials@TriangleMeshData@Gu@physx@@QAEPAGXZ 1001bf40 f i TriangleMeshBuilder.obj
 0001:0001b020       ?allocateTriangles@TriangleMeshData@Gu@physx@@QAEPAXI_NI@Z 1001c020 f i TriangleMeshBuilder.obj
 0001:0001b1a0       ?allocateVertices@MeshDataBase@Gu@physx@@QAEPAVPxVec3@3@I@Z 1001c1a0 f i TriangleMeshBuilder.obj
 0001:0001b240       ?begin@?$Array@USortedNeighbor@GrbTrimeshCookerHelper@physx@@VNamedAllocator@shdfnd@3@@shdfnd@physx@@QAEPAUSortedNeighbor@GrbTrimeshCookerHelper@3@XZ 1001c240 f i TriangleMeshBuilder.obj
 0001:0001b250       ?capacity@?$Array@USharpEdgeRange@GrbTrimeshCookerHelper@physx@@VNamedAllocator@shdfnd@3@@shdfnd@physx@@QBEIXZ 1001c250 f i TriangleMeshBuilder.obj
 0001:0001b270       ?capacity@?$Array@USortedNeighbor@GrbTrimeshCookerHelper@physx@@VNamedAllocator@shdfnd@3@@shdfnd@physx@@QBEIXZ 1001c270 f i TriangleMeshBuilder.obj
 0001:0001b290       ?capacityIncrement@?$Array@USortedNeighbor@GrbTrimeshCookerHelper@physx@@VNamedAllocator@shdfnd@3@@shdfnd@physx@@IBEIXZ 1001c290 f i TriangleMeshBuilder.obj
 0001:0001b2d0       ?copy@?$Array@USharpEdgeRange@GrbTrimeshCookerHelper@physx@@VNamedAllocator@shdfnd@3@@shdfnd@physx@@KAXPAUSharpEdgeRange@GrbTrimeshCookerHelper@3@0PBU453@@Z 1001c2d0 f i TriangleMeshBuilder.obj
 0001:0001b330       ?copy@?$Array@USortedNeighbor@GrbTrimeshCookerHelper@physx@@VNamedAllocator@shdfnd@3@@shdfnd@physx@@KAXPAUSortedNeighbor@GrbTrimeshCookerHelper@3@0PBU453@@Z 1001c330 f i TriangleMeshBuilder.obj
 0001:0001b390       ?create@?$Array@USharpEdgeRange@GrbTrimeshCookerHelper@physx@@VNamedAllocator@shdfnd@3@@shdfnd@physx@@KAXPAUSharpEdgeRange@GrbTrimeshCookerHelper@3@0ABU453@@Z 1001c390 f i TriangleMeshBuilder.obj
 0001:0001b3d0       ?deallocate@?$AlignedAllocator@$0IA@VNonTrackingAllocator@shdfnd@physx@@@shdfnd@physx@@QAEXPAX@Z 1001c3d0 f i TriangleMeshBuilder.obj
 0001:0001b410       ?deallocate@?$Array@USharpEdgeRange@GrbTrimeshCookerHelper@physx@@VNamedAllocator@shdfnd@3@@shdfnd@physx@@IAEXPAX@Z 1001c410 f i TriangleMeshBuilder.obj
 0001:0001b430       ?deallocate@?$Array@USortedNeighbor@GrbTrimeshCookerHelper@physx@@VNamedAllocator@shdfnd@3@@shdfnd@physx@@IAEXPAX@Z 1001c430 f i TriangleMeshBuilder.obj
 0001:0001b450       ?destroy@?$Array@USharpEdgeRange@GrbTrimeshCookerHelper@physx@@VNamedAllocator@shdfnd@3@@shdfnd@physx@@KAXPAUSharpEdgeRange@GrbTrimeshCookerHelper@3@0@Z 1001c450 f i TriangleMeshBuilder.obj
 0001:0001b470       ?destroy@?$Array@USortedNeighbor@GrbTrimeshCookerHelper@physx@@VNamedAllocator@shdfnd@3@@shdfnd@physx@@KAXPAUSortedNeighbor@GrbTrimeshCookerHelper@3@0@Z 1001c470 f i TriangleMeshBuilder.obj
 0001:0001b490       ?findEdgeCCW@?$TriangleT@I@Gu@physx@@QBEEII@Z 1001c490 f i TriangleMeshBuilder.obj
 0001:0001b5b0       ?getMidphaseID@BV4TriangleMeshBuilder@physx@@UBE?AW4Enum@PxMeshMidPhase@2@XZ 1001c5b0 f i TriangleMeshBuilder.obj
 0001:0001b5c0       ?getMidphaseID@RTreeTriangleMeshBuilder@physx@@UBE?AW4Enum@PxMeshMidPhase@2@XZ 1001c5c0 f i TriangleMeshBuilder.obj
 0001:0001b5d0       ?getName@?$ReflectionAllocator@E@shdfnd@physx@@CAPBDXZ 1001c5d0 f i TriangleMeshBuilder.obj
 0001:0001b610       ?getName@?$ReflectionAllocator@G@shdfnd@physx@@CAPBDXZ 1001c610 f i TriangleMeshBuilder.obj
 0001:0001b650       ?getName@?$ReflectionAllocator@VBV32Tree@Gu@physx@@@shdfnd@physx@@CAPBDXZ 1001c650 f i TriangleMeshBuilder.obj
 0001:0001b690       ?getName@?$ReflectionAllocator@VEdgeListBuilder@Gu@physx@@@shdfnd@physx@@CAPBDXZ 1001c690 f i TriangleMeshBuilder.obj
 0001:0001b6d0       ?getNbFaces@EdgeList@Gu@physx@@QBEIXZ 1001c6d0 f i TriangleMeshBuilder.obj
 0001:0001b6f0       ?getRemap@SourceMeshBase@Gu@physx@@QBEPBIXZ 1001c6f0 f i TriangleMeshBuilder.obj
 0001:0001b710       ?grow@?$Array@USharpEdgeRange@GrbTrimeshCookerHelper@physx@@VNamedAllocator@shdfnd@3@@shdfnd@physx@@IAEXI@Z 1001c710 f i TriangleMeshBuilder.obj
 0001:0001b770       ?grow@?$Array@USortedNeighbor@GrbTrimeshCookerHelper@physx@@VNamedAllocator@shdfnd@3@@shdfnd@physx@@IAEXI@Z 1001c770 f i TriangleMeshBuilder.obj
 0001:0001b7d0       ?growAndPushBack@?$Array@USortedNeighbor@GrbTrimeshCookerHelper@physx@@VNamedAllocator@shdfnd@3@@shdfnd@physx@@IAEAAUSortedNeighbor@GrbTrimeshCookerHelper@3@ABU453@@Z 1001c7d0 f i TriangleMeshBuilder.obj
 0001:0001b900       ?has16BitIndices@MeshDataBase@Gu@physx@@QBE_NXZ 1001c900 f i TriangleMeshBuilder.obj
 0001:0001b930       ?initRemap@SourceMeshBase@Gu@physx@@QAEXXZ 1001c930 f i TriangleMeshBuilder.obj
 0001:0001b950       ?isInUserMemory@?$Array@USharpEdgeRange@GrbTrimeshCookerHelper@physx@@VNamedAllocator@shdfnd@3@@shdfnd@physx@@QBEIXZ 1001c950 f i TriangleMeshBuilder.obj
 0001:0001b970       ?isInUserMemory@?$Array@USortedNeighbor@GrbTrimeshCookerHelper@physx@@VNamedAllocator@shdfnd@3@@shdfnd@physx@@QBEIXZ 1001c970 f i TriangleMeshBuilder.obj
 0001:0001b990       ?isValid@PxBVH33MidphaseDesc@physx@@QBE_NXZ 1001c990 f i TriangleMeshBuilder.obj
 0001:0001b9c0       ?isValid@PxBVH34MidphaseDesc@physx@@QBE_NXZ 1001c9c0 f i TriangleMeshBuilder.obj
 0001:0001b9f0       ?isValid@PxMidphaseDesc@physx@@QBE_NXZ 1001c9f0 f i TriangleMeshBuilder.obj
 0001:0001ba30       ?onMeshIndexFormatChange@TriangleMeshBuilder@physx@@UAEXXZ 1001ca30 f i TriangleMeshBuilder.obj
 0001:0001ba40       ?pushBack@?$Array@USortedNeighbor@GrbTrimeshCookerHelper@physx@@VNamedAllocator@shdfnd@3@@shdfnd@physx@@QAEAAUSortedNeighbor@GrbTrimeshCookerHelper@3@ABU453@@Z 1001ca40 f i TriangleMeshBuilder.obj
 0001:0001bac0       ?recreate@?$Array@USharpEdgeRange@GrbTrimeshCookerHelper@physx@@VNamedAllocator@shdfnd@3@@shdfnd@physx@@IAEXI@Z 1001cac0 f i TriangleMeshBuilder.obj
 0001:0001bb90       ?recreate@?$Array@USortedNeighbor@GrbTrimeshCookerHelper@physx@@VNamedAllocator@shdfnd@3@@shdfnd@physx@@IAEXI@Z 1001cb90 f i TriangleMeshBuilder.obj
 0001:0001bc60       ?release@RTree@Gu@physx@@QAEXXZ 1001cc60 f i TriangleMeshBuilder.obj
 0001:0001bcb0       ?releaseRemap@SourceMeshBase@Gu@physx@@QAEXXZ 1001ccb0 f i TriangleMeshBuilder.obj
 0001:0001bce0       ?remap@RTreeCookerRemap@physx@@UAEXPAIII@Z 1001cce0 f i TriangleMeshBuilder.obj
 0001:0001be40       ?reserve@?$Array@USharpEdgeRange@GrbTrimeshCookerHelper@physx@@VNamedAllocator@shdfnd@3@@shdfnd@physx@@QAEXI@Z 1001ce40 f i TriangleMeshBuilder.obj
 0001:0001be70       ?reserve@?$Array@USortedNeighbor@GrbTrimeshCookerHelper@physx@@VNamedAllocator@shdfnd@3@@shdfnd@physx@@QAEXI@Z 1001ce70 f i TriangleMeshBuilder.obj
 0001:0001bea0       ?resize@?$Array@USharpEdgeRange@GrbTrimeshCookerHelper@physx@@VNamedAllocator@shdfnd@3@@shdfnd@physx@@QAEXIABUSharpEdgeRange@GrbTrimeshCookerHelper@3@@Z 1001cea0 f i TriangleMeshBuilder.obj
 0001:0001bf10       ?resizeUninitialized@?$Array@USortedNeighbor@GrbTrimeshCookerHelper@physx@@VNamedAllocator@shdfnd@3@@shdfnd@physx@@QAEXI@Z 1001cf10 f i TriangleMeshBuilder.obj
 0001:0001bf40       ?setNbTriangles@SourceMesh@Gu@physx@@QAEXI@Z 1001cf40 f i TriangleMeshBuilder.obj
 0001:0001bf60       ?setNbVertices@SourceMeshBase@Gu@physx@@QAEXI@Z 1001cf60 f i TriangleMeshBuilder.obj
 0001:0001bf80       ?setPointers@SourceMesh@Gu@physx@@QAEXPAVIndTri32@23@PAVIndTri16@23@PBVPxVec3@3@@Z 1001cf80 f i TriangleMeshBuilder.obj
 0001:0001bfb0       ?setTriangleAdjacency@TriangleMeshData@Gu@physx@@QAEXIII@Z 1001cfb0 f i TriangleMeshBuilder.obj
 0001:0001c010       ?size@?$Array@USortedNeighbor@GrbTrimeshCookerHelper@physx@@VNamedAllocator@shdfnd@3@@shdfnd@physx@@QBEIXZ 1001d010 f i TriangleMeshBuilder.obj
 0001:0001c030       ?to16@shdfnd@physx@@YAGI@Z 1001d030 f i TriangleMeshBuilder.obj
 0001:0001c080       ?writeChunk@physx@@YAXCCCCAAVPxOutputStream@1@@Z 1001d080 f i TriangleMeshBuilder.obj
 0001:0001c0d0       ?writeIntBuffer@physx@@YAXPBII_NAAVPxOutputStream@1@@Z 1001d0d0 f i TriangleMeshBuilder.obj
 0001:0001c0f0       ??0BigConvexDataBuilder@physx@@QAE@PBUConvexHullData@Gu@1@PAVBigConvexData@1@PBVPxVec3@1@@Z 1001d0f0 f   BigConvexDataBuilder.obj
 0001:0001c120       ??1BigConvexDataBuilder@physx@@QAE@XZ 1001d120 f   BigConvexDataBuilder.obj
 0001:0001c130       ?precompute@BigConvexDataBuilder@physx@@QAE_NI@Z 1001d130 f   BigConvexDataBuilder.obj
 0001:0001c700       ?initialize@BigConvexDataBuilder@physx@@QAE_NXZ 1001d700 f   BigConvexDataBuilder.obj
 0001:0001c750       ?save@BigConvexDataBuilder@physx@@QBE_NAAVPxOutputStream@2@_N@Z 1001d750 f   BigConvexDataBuilder.obj
 0001:0001c830       ?computeValencies@BigConvexDataBuilder@physx@@QAE_NABVConvexHullBuilder@2@@Z 1001d830 f   BigConvexDataBuilder.obj
 0001:0001cdc0       ?saveValencies@BigConvexDataBuilder@physx@@QBE_NAAVPxOutputStream@2@_N@Z 1001ddc0 f   BigConvexDataBuilder.obj
 0001:0001cf50       ??0BigConvexData@physx@@QAE@W4PxEMPTY@1@@Z 1001df50 f i BigConvexDataBuilder.obj
 0001:0001cf60       ??4BigConvexData@physx@@QAEAAV01@ABV01@@Z 1001df60 f i BigConvexDataBuilder.obj
 0001:0001cf90       ?GetAdjacentVerts@BigConvexData@physx@@QBEPBEXZ 1001df90 f i BigConvexDataBuilder.obj
 0001:0001cfb0       ?GetNbNeighbors@BigConvexData@physx@@QBEGI@Z 1001dfb0 f i BigConvexDataBuilder.obj
 0001:0001cfd0       ?GetNbSamples@BigConvexData@physx@@QBEIXZ 1001dfd0 f i BigConvexDataBuilder.obj
 0001:0001cff0       ?GetNbVerts@BigConvexData@physx@@QBEIXZ 1001dff0 f i BigConvexDataBuilder.obj
 0001:0001d010       ?GetNeighbors@BigConvexData@physx@@QBEPBEI@Z 1001e010 f i BigConvexDataBuilder.obj
 0001:0001d040       ?GetOffset@BigConvexData@physx@@QBEGI@Z 1001e040 f i BigConvexDataBuilder.obj
 0001:0001d060       ?GetSubdiv@BigConvexData@physx@@QBEIXZ 1001e060 f i BigConvexDataBuilder.obj
 0001:0001d080       ?GetValencies@BigConvexData@physx@@QBEPBUValency@Gu@2@XZ 1001e080 f i BigConvexDataBuilder.obj
 0001:0001d0a0       ?GetValency@BigConvexData@physx@@QBEGI@Z 1001e0a0 f i BigConvexDataBuilder.obj
 0001:0001d0c0       ?precomputeSample@BigConvexDataBuilder@physx@@IAEXABVPxVec3@2@AAEM@Z 1001e0c0 f i BigConvexDataBuilder.obj
 0001:0001d330       ??0ConvexHullBuilder@physx@@QAE@PAUConvexHullData@Gu@1@_N@Z 1001e330 f   ConvexHullBuilder.obj
 0001:0001d3a0       ??1ConvexHullBuilder@physx@@QAE@XZ 1001e3a0 f   ConvexHullBuilder.obj
 0001:0001d4a0       ?init@ConvexHullBuilder@physx@@QAE_NIPBVPxVec3@2@PBIIIPBUPxHullPolygon@2@_NPAVConvexHullLib@2@@Z 1001e4a0 f   ConvexHullBuilder.obj
 0001:0001da50       ?save@ConvexHullBuilder@physx@@QBE_NAAVPxOutputStream@2@_N@Z 1001ea50 f   ConvexHullBuilder.obj
 0001:0001dce0       ?copy@ConvexHullBuilder@physx@@QAE_NAAUConvexHullData@Gu@2@AAI@Z 1001ece0 f   ConvexHullBuilder.obj
 0001:0001e1c0       ?createEdgeList@ConvexHullBuilder@physx@@QAE_N_NI@Z 1001f1c0 f   ConvexHullBuilder.obj
 0001:0001eba0       ?checkHullPolygons@ConvexHullBuilder@physx@@QBE_NXZ 1001fba0 f   ConvexHullBuilder.obj
 0001:0001f350       ?calculateVertexMapTable@ConvexHullBuilder@physx@@QAE_NI_N@Z 10020350 f   ConvexHullBuilder.obj
 0001:0001f560       ?computeGeomCenter@ConvexHullBuilder@physx@@IBE_NAAVPxVec3@2@IPAUHullTriangleData@2@@Z 10020560 f   ConvexHullBuilder.obj
 0001:0001f690       ??$?_UUEdgeDescData@Gu@physx@@@@YAPAXIV?$ReflectionAllocator@UEdgeDescData@Gu@physx@@@shdfnd@physx@@PBDH@Z 10020690 f i ConvexHullBuilder.obj
 0001:0001f6b0       ??$?_U_N@@YAPAXIV?$ReflectionAllocator@_N@shdfnd@physx@@PBDH@Z 100206b0 f i ConvexHullBuilder.obj
 0001:0001f6d0       ??0?$PxBitAndDataT@G$0IAAA@@physx@@QAE@G_N@Z 100206d0 f i ConvexHullBuilder.obj
 0001:0001f710       ??0?$ReflectionAllocator@UEdgeDescData@Gu@physx@@@shdfnd@physx@@QAE@PBD@Z 10020710 f i ConvexHullBuilder.obj
 0001:0001f720       ??0?$ReflectionAllocator@_N@shdfnd@physx@@QAE@PBD@Z 10020720 f i ConvexHullBuilder.obj
 0001:0001f730       ??0?$TriangleT@I@Gu@physx@@QAE@III@Z 10020730 f i ConvexHullBuilder.obj
 0001:0001f780       ??0HullPolygonData@Gu@physx@@QAE@ABU012@@Z 10020780 f i ConvexHullBuilder.obj
 0001:0001f7d0       ??0PxPlane@physx@@QAE@ABV01@@Z 100207d0 f i ConvexHullBuilder.obj
 0001:0001f800       ??0PxPlane@physx@@QAE@MMMM@Z 10020800 f i ConvexHullBuilder.obj
 0001:0001f850       ??4PxPlane@physx@@QAEAAV01@$$QAV01@@Z 10020850 f i ConvexHullBuilder.obj
 0001:0001f880       ?PxMemSet@physx@@YAPAXPAXHI@Z 10020880 f i ConvexHullBuilder.obj
 0001:0001f8a0       ?allocate@?$ReflectionAllocator@UEdgeDescData@Gu@physx@@@shdfnd@physx@@QAEPAXIPBDH@Z 100208a0 f i ConvexHullBuilder.obj
 0001:0001f8f0       ?allocate@?$ReflectionAllocator@_N@shdfnd@physx@@QAEPAXIPBDH@Z 100208f0 f i ConvexHullBuilder.obj
 0001:0001f940       ?area@?$TriangleT@I@Gu@physx@@QBEMPBVPxVec3@3@@Z 10020940 f i ConvexHullBuilder.obj
 0001:0001f9e0       ?center@?$TriangleT@I@Gu@physx@@QBEXPBVPxVec3@3@AAV43@@Z 100209e0 f i ConvexHullBuilder.obj
 0001:0001fa70       ?computeBufferSize@Gu@physx@@YAIABUConvexHullData@12@I@Z 10020a70 f i ConvexHullBuilder.obj
 0001:0001fb30       ?computeNbPolygons@ConvexHullBuilder@physx@@QBEIXZ 10020b30 f i ConvexHullBuilder.obj
 0001:0001fb90       ?flip@physx@@YAXAAG@Z      10020b90 f i ConvexHullBuilder.obj
 0001:0001fbe0       ?flip@physx@@YAXAAM@Z      10020be0 f i ConvexHullBuilder.obj
 0001:0001fc70       ?flipData@Gu@physx@@YAXAAUHullPolygonData@12@@Z 10020c70 f i ConvexHullBuilder.obj
 0001:0001fcc0       ?getName@?$ReflectionAllocator@UEdgeDescData@Gu@physx@@@shdfnd@physx@@CAPBDXZ 10020cc0 f i ConvexHullBuilder.obj
 0001:0001fd00       ?getName@?$ReflectionAllocator@_N@shdfnd@physx@@CAPBDXZ 10020d00 f i ConvexHullBuilder.obj
 0001:0001fd40       ?memSet@intrinsics@physx@@YAPAXPAXHI@Z 10020d40 f i ConvexHullBuilder.obj
 0001:0001fd60       ?to8@shdfnd@physx@@YAEI@Z  10020d60 f i ConvexHullBuilder.obj
 0001:0001fdb0       ??1ConvexHullLib@physx@@UAE@XZ 10020db0 f   ConvexHullLib.obj
 0001:0001fe10       ?cleanupVertices@ConvexHullLib@physx@@IAE_NIPBVPxVec3@2@IAAIPAV32@AAV32@3@Z 10020e10 f   ConvexHullLib.obj
 0001:00020260       ?shiftAndcleanupVertices@ConvexHullLib@physx@@IAE_NIPBVPxVec3@2@IAAIPAV32@AAV32@3@Z 10021260 f   ConvexHullLib.obj
 0001:00020380       ?swapLargestFace@ConvexHullLib@physx@@IAEXAAVPxConvexMeshDesc@2@@Z 10021380 f   ConvexHullLib.obj
 0001:00020650       ?shiftConvexMeshDesc@ConvexHullLib@physx@@IAEXAAVPxConvexMeshDesc@2@@Z 10021650 f   ConvexHullLib.obj
 0001:00020c10       ??_GConvexHullLib@physx@@UAEPAXI@Z 10021c10 f i ConvexHullLib.obj
 0001:00020c10       ??_EConvexHullLib@physx@@UAEPAXI@Z 10021c10 f i ConvexHullLib.obj
 0001:00020c40       ??0ConvexHull@physx@@QAE@ABVPxVec3@1@0ABV?$Array@VPxPlane@physx@@VNamedAllocator@shdfnd@2@@shdfnd@1@@Z 10021c40 f   ConvexHullUtils.obj
 0001:00021300       ??0ConvexHull@physx@@QAE@ABVPxVec3@1@ABVPxTransform@1@ABV?$Array@VPxPlane@physx@@VNamedAllocator@shdfnd@2@@shdfnd@1@@Z 10022300 f   ConvexHullUtils.obj
 0001:00021b20       ?findCandidatePlane@ConvexHull@physx@@QBEHMM@Z 10022b20 f   ConvexHullUtils.obj
 0001:00021e40       ?assertIntact@ConvexHull@physx@@QBE_NM@Z 10022e40 f   ConvexHullUtils.obj
 0001:000223c0       ?maxNumVertsPerFace@ConvexHull@physx@@QBEIXZ 100233c0 f   ConvexHullUtils.obj
 0001:00022460       ?convexHullCrop@physx@@YAPAVConvexHull@1@ABV21@ABVPxPlane@1@M@Z 10023460 f   ConvexHullUtils.obj
 0001:00023530       ?computeOBBFromConvex@physx@@YA_NABVPxConvexMeshDesc@1@AAVPxVec3@1@AAVPxTransform@1@@Z 10024530 f   ConvexHullUtils.obj
 0001:00023c30       ?computeOBBSIMD@local@@YAXIPBT__m128@@AAT2@ABT2@1@Z 10024c30 f   ConvexHullUtils.obj
 0001:00023fb0       ??$?2V?$ReflectionAllocator@VConvexHull@physx@@@shdfnd@physx@@@UserAllocated@shdfnd@physx@@SAPAXIV?$ReflectionAllocator@VConvexHull@physx@@@12@PBDH@Z 10024fb0 f i ConvexHullUtils.obj
 0001:00023fd0       ??0?$Array@VHalfEdge@ConvexHull@physx@@VNamedAllocator@shdfnd@3@@shdfnd@physx@@QAE@ABVNamedAllocator@12@@Z 10024fd0 f i ConvexHullUtils.obj
 0001:00024010       ??0?$Array@VPxPlane@physx@@VNamedAllocator@shdfnd@2@@shdfnd@physx@@QAE@ABVNamedAllocator@12@@Z 10025010 f i ConvexHullUtils.obj
 0001:00024050       ??0?$ReflectionAllocator@VConvexHull@physx@@@shdfnd@physx@@QAE@PBD@Z 10025050 f i ConvexHullUtils.obj
 0001:00024060       ??0Box@Gu@physx@@QAE@ABV012@@Z 10025060 f i ConvexHullUtils.obj
 0001:000240a0       ??0Box@Gu@physx@@QAE@ABVPxVec3@2@0ABVPxMat33@2@@Z 100250a0 f i ConvexHullUtils.obj
 0001:000240e0       ??0Box@Gu@physx@@QAE@XZ    100250e0 f i ConvexHullUtils.obj
 0001:00024110       ??0ConvexHull@physx@@QAE@ABV01@@Z 10025110 f i ConvexHullUtils.obj
 0001:000241a0       ??0ConvexHull@physx@@QAE@ABV?$Array@VPxPlane@physx@@VNamedAllocator@shdfnd@2@@shdfnd@1@@Z 100251a0 f i ConvexHullUtils.obj
 0001:00024220       ??0HalfEdge@ConvexHull@physx@@QAE@FEE@Z 10025220 f i ConvexHullUtils.obj
 0001:00024250       ??0HalfEdge@ConvexHull@physx@@QAE@XZ 10025250 f i ConvexHullUtils.obj
 0001:00024260       ??0Mat33V@aos@shdfnd@physx@@QAE@XZ 10025260 f i ConvexHullUtils.obj
 0001:00024270       ??0PxBoundedData@physx@@QAE@XZ 10025270 f i ConvexHullUtils.obj
 0001:00024290       ??0PxConvexMeshDesc@physx@@QAE@XZ 10025290 f i ConvexHullUtils.obj
 0001:000242e0       ??0PxIntegrals@physx@@QAE@XZ 100252e0 f i ConvexHullUtils.obj
 0001:00024300       ??0PxMat33@physx@@QAE@ABV01@@Z 10025300 f i ConvexHullUtils.obj
 0001:00024340       ??0PxMat33@physx@@QAE@ABVPxQuat@1@@Z 10025340 f i ConvexHullUtils.obj
 0001:00024540       ??0PxMat33@physx@@QAE@ABVPxVec3@1@00@Z 10025540 f i ConvexHullUtils.obj
 0001:00024580       ??0PxMat33@physx@@QAE@W4PxIDENTITY@1@@Z 10025580 f i ConvexHullUtils.obj
 0001:00024620       ??0PxPlane@physx@@QAE@ABVPxVec3@1@M@Z 10025620 f i ConvexHullUtils.obj
 0001:00024650       ??0PxPlane@physx@@QAE@XZ   10025650 f i ConvexHullUtils.obj
 0001:00024670       ??0PxQuat@physx@@QAE@ABV01@@Z 10025670 f i ConvexHullUtils.obj
 0001:000246b0       ??0PxQuat@physx@@QAE@ABVPxMat33@1@@Z 100256b0 f i ConvexHullUtils.obj
 0001:00024a00       ??0PxQuat@physx@@QAE@MABVPxVec3@1@@Z 10025a00 f i ConvexHullUtils.obj
 0001:00024ae0       ??0PxQuat@physx@@QAE@MMMM@Z 10025ae0 f i ConvexHullUtils.obj
 0001:00024b30       ??0PxQuat@physx@@QAE@XZ    10025b30 f i ConvexHullUtils.obj
 0001:00024b40       ??0PxStridedData@physx@@QAE@XZ 10025b40 f i ConvexHullUtils.obj
 0001:00024b70       ??0PxTransform@physx@@QAE@ABVPxVec3@1@ABVPxQuat@1@@Z 10025b70 f i ConvexHullUtils.obj
 0001:00024bc0       ??1Box@Gu@physx@@QAE@XZ    10025bc0 f i ConvexHullUtils.obj
 0001:00024bd0       ??4Box@Gu@physx@@QAEABV012@ABV012@@Z 10025bd0 f i ConvexHullUtils.obj
 0001:00024c10       ??4PxPlane@physx@@QAEAAV01@ABV01@@Z 10025c10 f i ConvexHullUtils.obj
 0001:00024c40       ??4PxQuat@physx@@QAEAAV01@ABV01@@Z 10025c40 f i ConvexHullUtils.obj
 0001:00024c80       ??8PxPlane@physx@@QBE_NABV01@@Z 10025c80 f i ConvexHullUtils.obj
 0001:00024cd0       ??8PxVec3@physx@@QBE_NABV01@@Z 10025cd0 f i ConvexHullUtils.obj
 0001:00024d30       ??A?$Array@VHalfEdge@ConvexHull@physx@@VNamedAllocator@shdfnd@3@@shdfnd@physx@@QAEAAVHalfEdge@ConvexHull@2@I@Z 10025d30 f i ConvexHullUtils.obj
 0001:00024d90       ??A?$Array@VHalfEdge@ConvexHull@physx@@VNamedAllocator@shdfnd@3@@shdfnd@physx@@QBEABVHalfEdge@ConvexHull@2@I@Z 10025d90 f i ConvexHullUtils.obj
 0001:00024df0       ??A?$Array@VPxPlane@physx@@VNamedAllocator@shdfnd@2@@shdfnd@physx@@QBEABVPxPlane@2@I@Z 10025df0 f i ConvexHullUtils.obj
 0001:00024e50       ??A?$Array@VPxVec3@physx@@VNamedAllocator@shdfnd@2@@shdfnd@physx@@QBEABVPxVec3@2@I@Z 10025e50 f i ConvexHullUtils.obj
 0001:00024eb0       ??APxMat33@physx@@QAEAAVPxVec3@1@I@Z 10025eb0 f i ConvexHullUtils.obj
 0001:00024ed0       ??APxMat33@physx@@QBEABVPxVec3@1@I@Z 10025ed0 f i ConvexHullUtils.obj
 0001:00024ef0       ??DPxMat33@physx@@QBE?BVPxVec3@1@ABV21@@Z 10025ef0 f i ConvexHullUtils.obj
 0001:00024f10       ??DPxQuat@physx@@QBE?AV01@M@Z 10025f10 f i ConvexHullUtils.obj
 0001:00024f80       ??GPxVec3@physx@@QBE?AV01@XZ 10025f80 f i ConvexHullUtils.obj
 0001:00024fe0       ??RPxMat33@physx@@QAEAAMII@Z 10025fe0 f i ConvexHullUtils.obj
 0001:00025010       ?FAdd@aos@shdfnd@physx@@YA?AT__m128@@T4@0@Z 10026010 f i ConvexHullUtils.obj
 0001:000250d0       ?FMul@aos@shdfnd@physx@@YA?AT__m128@@T4@0@Z 100260d0 f i ConvexHullUtils.obj
 0001:00025190       ?FScaleAdd@aos@shdfnd@physx@@YA?AT__m128@@T4@00@Z 10026190 f i ConvexHullUtils.obj
 0001:000252b0       ?PxCos@physx@@YAMM@Z       100262b0 f i ConvexHullUtils.obj
 0001:000252d0       ?PxSin@physx@@YAMM@Z       100262d0 f i ConvexHullUtils.obj
 0001:000252f0       ?QuatGetMat33V@aos@shdfnd@physx@@YAXABT__m128@@AAT4@11@Z 100262f0 f i ConvexHullUtils.obj
 0001:000254f0       ?QuatRotateInv@aos@shdfnd@physx@@YA?AT__m128@@T4@0@Z 100264f0 f i ConvexHullUtils.obj
 0001:00025670       ?QuatVLoadU@aos@shdfnd@physx@@YA?AT__m128@@PBM@Z 10026670 f i ConvexHullUtils.obj
 0001:000256b0       ?V3Cross@aos@shdfnd@physx@@YA?AT__m128@@T4@0@Z 100266b0 f i ConvexHullUtils.obj
 0001:00025810       ?V3NegScaleSub@aos@shdfnd@physx@@YA?AT__m128@@T4@00@Z 10026810 f i ConvexHullUtils.obj
 0001:00025930       ?V3Scale@aos@shdfnd@physx@@YA?AT__m128@@T4@0@Z 10026930 f i ConvexHullUtils.obj
 0001:000259f0       ?V3ScaleAdd@aos@shdfnd@physx@@YA?AT__m128@@T4@00@Z 100269f0 f i ConvexHullUtils.obj
 0001:00025b10       ?V4GetW@aos@shdfnd@physx@@YA?AT__m128@@T4@@Z 10026b10 f i ConvexHullUtils.obj
 0001:00025b50       ?V4GetX@aos@shdfnd@physx@@YA?AT__m128@@T4@@Z 10026b50 f i ConvexHullUtils.obj
 0001:00025b90       ?V4GetY@aos@shdfnd@physx@@YA?AT__m128@@T4@@Z 10026b90 f i ConvexHullUtils.obj
 0001:00025bd0       ?V4GetZ@aos@shdfnd@physx@@YA?AT__m128@@T4@@Z 10026bd0 f i ConvexHullUtils.obj
 0001:00025c10       ?V4Max@aos@shdfnd@physx@@YA?AT__m128@@T4@0@Z 10026c10 f i ConvexHullUtils.obj
 0001:00025c50       ?V4Min@aos@shdfnd@physx@@YA?AT__m128@@T4@0@Z 10026c50 f i ConvexHullUtils.obj
 0001:00025c90       ?V4Mul@aos@shdfnd@physx@@YA?AT__m128@@T4@0@Z 10026c90 f i ConvexHullUtils.obj
 0001:00025cd0       ?V4MulAdd@aos@shdfnd@physx@@YA?AT__m128@@T4@00@Z 10026cd0 f i ConvexHullUtils.obj
 0001:00025d30       ?V4Neg@aos@shdfnd@physx@@YA?AT__m128@@T4@@Z 10026d30 f i ConvexHullUtils.obj
 0001:00025d70       ?Vec4V_From_Vec3V@aos@shdfnd@physx@@YA?AT__m128@@T4@@Z 10026d70 f i ConvexHullUtils.obj
 0001:00025da0       ?allocate@?$Array@VHalfEdge@ConvexHull@physx@@VNamedAllocator@shdfnd@3@@shdfnd@physx@@IAEPAVHalfEdge@ConvexHull@3@I@Z 10026da0 f i ConvexHullUtils.obj
 0001:00025e10       ?allocate@?$Array@VPxPlane@physx@@VNamedAllocator@shdfnd@2@@shdfnd@physx@@IAEPAVPxPlane@3@I@Z 10026e10 f i ConvexHullUtils.obj
 0001:00025e80       ?allocate@?$ReflectionAllocator@VConvexHull@physx@@@shdfnd@physx@@QAEPAXIPBDH@Z 10026e80 f i ConvexHullUtils.obj
 0001:00025ed0       ?begin@?$Array@VHalfEdge@ConvexHull@physx@@VNamedAllocator@shdfnd@3@@shdfnd@physx@@QAEPAVHalfEdge@ConvexHull@3@XZ 10026ed0 f i ConvexHullUtils.obj
 0001:00025ee0       ?begin@?$Array@VHalfEdge@ConvexHull@physx@@VNamedAllocator@shdfnd@3@@shdfnd@physx@@QBEPBVHalfEdge@ConvexHull@3@XZ 10026ee0 f i ConvexHullUtils.obj
 0001:00025ef0       ?begin@?$Array@VPxPlane@physx@@VNamedAllocator@shdfnd@2@@shdfnd@physx@@QAEPAVPxPlane@3@XZ 10026ef0 f i ConvexHullUtils.obj
 0001:00025f00       ?begin@?$Array@VPxPlane@physx@@VNamedAllocator@shdfnd@2@@shdfnd@physx@@QBEPBVPxPlane@3@XZ 10026f00 f i ConvexHullUtils.obj
 0001:00025f10       ?begin@?$Array@VPxVec3@physx@@VNamedAllocator@shdfnd@2@@shdfnd@physx@@QBEPBVPxVec3@3@XZ 10026f10 f i ConvexHullUtils.obj
 0001:00025f20       ?capacity@?$Array@VHalfEdge@ConvexHull@physx@@VNamedAllocator@shdfnd@3@@shdfnd@physx@@QBEIXZ 10026f20 f i ConvexHullUtils.obj
 0001:00025f40       ?capacity@?$Array@VPxPlane@physx@@VNamedAllocator@shdfnd@2@@shdfnd@physx@@QBEIXZ 10026f40 f i ConvexHullUtils.obj
 0001:00025f60       ?capacityIncrement@?$Array@VHalfEdge@ConvexHull@physx@@VNamedAllocator@shdfnd@3@@shdfnd@physx@@IBEIXZ 10026f60 f i ConvexHullUtils.obj
 0001:00025fa0       ?capacityIncrement@?$Array@VPxPlane@physx@@VNamedAllocator@shdfnd@2@@shdfnd@physx@@IBEIXZ 10026fa0 f i ConvexHullUtils.obj
 0001:00025fe0       ?computeAABBExtent@Box@Gu@physx@@QBE?AVPxVec3@3@XZ 10026fe0 f i ConvexHullUtils.obj
 0001:00026210       ?computeBoxPoints@Box@Gu@physx@@QBEXPIAVPxVec3@3@@Z 10027210 f i ConvexHullUtils.obj
 0001:00026250       ?copy@?$Array@VHalfEdge@ConvexHull@physx@@VNamedAllocator@shdfnd@3@@shdfnd@physx@@KAXPAVHalfEdge@ConvexHull@3@0PBV453@@Z 10027250 f i ConvexHullUtils.obj
 0001:000262a0       ?copy@?$Array@VPxPlane@physx@@VNamedAllocator@shdfnd@2@@shdfnd@physx@@KAXPAVPxPlane@3@0PBV43@@Z 100272a0 f i ConvexHullUtils.obj
 0001:000262f0       ?copyHull@ConvexHull@physx@@QAEXABV12@@Z 100272f0 f i ConvexHullUtils.obj
 0001:00026410       ?cos@intrinsics@physx@@YAMM@Z 10027410 f i ConvexHullUtils.obj
 0001:00026430       ?create@?$Array@VHalfEdge@ConvexHull@physx@@VNamedAllocator@shdfnd@3@@shdfnd@physx@@KAXPAVHalfEdge@ConvexHull@3@0ABV453@@Z 10027430 f i ConvexHullUtils.obj
 0001:00026470       ?create@?$Array@VPxPlane@physx@@VNamedAllocator@shdfnd@2@@shdfnd@physx@@KAXPAVPxPlane@3@0ABV43@@Z 10027470 f i ConvexHullUtils.obj
 0001:000264b0       ?create@?$Array@VPxVec3@physx@@VNamedAllocator@shdfnd@2@@shdfnd@physx@@KAXPAVPxVec3@3@0ABV43@@Z 100274b0 f i ConvexHullUtils.obj
 0001:000264f0       ?deallocate@?$Array@VHalfEdge@ConvexHull@physx@@VNamedAllocator@shdfnd@3@@shdfnd@physx@@IAEXPAX@Z 100274f0 f i ConvexHullUtils.obj
 0001:00026510       ?deallocate@?$Array@VPxPlane@physx@@VNamedAllocator@shdfnd@2@@shdfnd@physx@@IAEXPAX@Z 10027510 f i ConvexHullUtils.obj
 0001:00026530       ?degToRad@shdfnd@physx@@YAMM@Z 10027530 f i ConvexHullUtils.obj
 0001:00026550       ?destroy@?$Array@VHalfEdge@ConvexHull@physx@@VNamedAllocator@shdfnd@3@@shdfnd@physx@@KAXPAVHalfEdge@ConvexHull@3@0@Z 10027550 f i ConvexHullUtils.obj
 0001:00026570       ?destroy@?$Array@VPxPlane@physx@@VNamedAllocator@shdfnd@2@@shdfnd@physx@@KAXPAVPxPlane@3@0@Z 10027570 f i ConvexHullUtils.obj
 0001:00026590       ?getDeterminant@PxMat33@physx@@QBEMXZ 10027590 f i ConvexHullUtils.obj
 0001:000265c0       ?getEdges@ConvexHull@physx@@QAEAAV?$Array@VHalfEdge@ConvexHull@physx@@VNamedAllocator@shdfnd@3@@shdfnd@2@XZ 100275c0 f i ConvexHullUtils.obj
 0001:000265e0       ?getEdges@ConvexHull@physx@@QBEABV?$Array@VHalfEdge@ConvexHull@physx@@VNamedAllocator@shdfnd@3@@shdfnd@2@XZ 100275e0 f i ConvexHullUtils.obj
 0001:00026600       ?getFacets@ConvexHull@physx@@QAEAAV?$Array@VPxPlane@physx@@VNamedAllocator@shdfnd@2@@shdfnd@2@XZ 10027600 f i ConvexHullUtils.obj
 0001:00026620       ?getFacets@ConvexHull@physx@@QBEABV?$Array@VPxPlane@physx@@VNamedAllocator@shdfnd@2@@shdfnd@2@XZ 10027620 f i ConvexHullUtils.obj
 0001:00026640       ?getInputPlanes@ConvexHull@physx@@QBEABV?$Array@VPxPlane@physx@@VNamedAllocator@shdfnd@2@@shdfnd@2@XZ 10027640 f i ConvexHullUtils.obj
 0001:00026660       ?getInverse@PxMat33@physx@@QBE?BV12@XZ 10027660 f i ConvexHullUtils.obj
 0001:00026880       ?getName@?$ReflectionAllocator@VConvexHull@physx@@@shdfnd@physx@@CAPBDXZ 10027880 f i ConvexHullUtils.obj
 0001:000268c0       ?getOriginInertia@PxIntegrals@physx@@QAEXAAVPxMat33@2@@Z 100278c0 f i ConvexHullUtils.obj
 0001:00026940       ?getTransform@Box@Gu@physx@@QBE?AVPxTransform@3@XZ 10027940 f i ConvexHullUtils.obj
 0001:00026970       ?getTranspose@PxMat33@physx@@QBE?BV12@XZ 10027970 f i ConvexHullUtils.obj
 0001:00026a30       ?getVertices@ConvexHull@physx@@QAEAAV?$Array@VPxVec3@physx@@VNamedAllocator@shdfnd@2@@shdfnd@2@XZ 10027a30 f i ConvexHullUtils.obj
 0001:00026a40       ?getVertices@ConvexHull@physx@@QBEABV?$Array@VPxVec3@physx@@VNamedAllocator@shdfnd@2@@shdfnd@2@XZ 10027a40 f i ConvexHullUtils.obj
 0001:00026a50       ?grow@?$Array@VHalfEdge@ConvexHull@physx@@VNamedAllocator@shdfnd@3@@shdfnd@physx@@IAEXI@Z 10027a50 f i ConvexHullUtils.obj
 0001:00026ab0       ?grow@?$Array@VPxPlane@physx@@VNamedAllocator@shdfnd@2@@shdfnd@physx@@IAEXI@Z 10027ab0 f i ConvexHullUtils.obj
 0001:00026b10       ?growAndPushBack@?$Array@VHalfEdge@ConvexHull@physx@@VNamedAllocator@shdfnd@3@@shdfnd@physx@@IAEAAVHalfEdge@ConvexHull@3@ABV453@@Z 10027b10 f i ConvexHullUtils.obj
 0001:00026c40       ?growAndPushBack@?$Array@VPxPlane@physx@@VNamedAllocator@shdfnd@2@@shdfnd@physx@@IAEAAVPxPlane@3@ABV43@@Z 10027c40 f i ConvexHullUtils.obj
 0001:00026d70       ?isFinite@PxQuat@physx@@QBE_NXZ 10027d70 f i ConvexHullUtils.obj
 0001:00026e10       ?isInUserMemory@?$Array@VHalfEdge@ConvexHull@physx@@VNamedAllocator@shdfnd@3@@shdfnd@physx@@QBEIXZ 10027e10 f i ConvexHullUtils.obj
 0001:00026e30       ?isInUserMemory@?$Array@VPxPlane@physx@@VNamedAllocator@shdfnd@2@@shdfnd@physx@@QBEIXZ 10027e30 f i ConvexHullUtils.obj
 0001:00026e50       ?isSane@PxQuat@physx@@QBE_NXZ 10027e50 f i ConvexHullUtils.obj
 0001:00026ed0       ?isValid@Box@Gu@physx@@QBE_NXZ 10027ed0 f i ConvexHullUtils.obj
 0001:00026f10       ?magnitude@PxQuat@physx@@QBEMXZ 10027f10 f i ConvexHullUtils.obj
 0001:00026f30       ?magnitudeSquared@PxQuat@physx@@QBEMXZ 10027f30 f i ConvexHullUtils.obj
 0001:00026f90       ?pushBack@?$Array@VHalfEdge@ConvexHull@physx@@VNamedAllocator@shdfnd@3@@shdfnd@physx@@QAEAAVHalfEdge@ConvexHull@3@ABV453@@Z 10027f90 f i ConvexHullUtils.obj
 0001:00027010       ?pushBack@?$Array@VPxPlane@physx@@VNamedAllocator@shdfnd@2@@shdfnd@physx@@QAEAAVPxPlane@3@ABV43@@Z 10028010 f i ConvexHullUtils.obj
 0001:00027090       ?recreate@?$Array@VHalfEdge@ConvexHull@physx@@VNamedAllocator@shdfnd@3@@shdfnd@physx@@IAEXI@Z 10028090 f i ConvexHullUtils.obj
 0001:00027160       ?recreate@?$Array@VPxPlane@physx@@VNamedAllocator@shdfnd@2@@shdfnd@physx@@IAEXI@Z 10028160 f i ConvexHullUtils.obj
 0001:00027230       ?reserve@?$Array@VHalfEdge@ConvexHull@physx@@VNamedAllocator@shdfnd@3@@shdfnd@physx@@QAEXI@Z 10028230 f i ConvexHullUtils.obj
 0001:00027260       ?reserve@?$Array@VPxPlane@physx@@VNamedAllocator@shdfnd@2@@shdfnd@physx@@QAEXI@Z 10028260 f i ConvexHullUtils.obj
 0001:00027290       ?resize@?$Array@VHalfEdge@ConvexHull@physx@@VNamedAllocator@shdfnd@3@@shdfnd@physx@@QAEXIABVHalfEdge@ConvexHull@3@@Z 10028290 f i ConvexHullUtils.obj
 0001:00027300       ?resize@?$Array@VPxPlane@physx@@VNamedAllocator@shdfnd@2@@shdfnd@physx@@QAEXIABVPxPlane@3@@Z 10028300 f i ConvexHullUtils.obj
 0001:00027370       ?resize@?$Array@VPxVec3@physx@@VNamedAllocator@shdfnd@2@@shdfnd@physx@@QAEXIABVPxVec3@3@@Z 10028370 f i ConvexHullUtils.obj
 0001:000273e0       ?rotate@Box@Gu@physx@@QBE?AVPxVec3@3@ABV43@@Z 100283e0 f i ConvexHullUtils.obj
 0001:00027400       ?rotateInv@Box@Gu@physx@@QBE?AVPxVec3@3@ABV43@@Z 10028400 f i ConvexHullUtils.obj
 0001:00027420       ?setAxes@Box@Gu@physx@@QAEXABVPxVec3@3@00@Z 10028420 f i ConvexHullUtils.obj
 0001:00027460       ?setEmpty@Box@Gu@physx@@QAEXXZ 10028460 f i ConvexHullUtils.obj
 0001:000274e0       ?sin@intrinsics@physx@@YAMM@Z 100284e0 f i ConvexHullUtils.obj
 0001:00027500       ?size@?$Array@VHalfEdge@ConvexHull@physx@@VNamedAllocator@shdfnd@3@@shdfnd@physx@@QBEIXZ 10028500 f i ConvexHullUtils.obj
 0001:00027520       ?size@?$Array@VPxPlane@physx@@VNamedAllocator@shdfnd@2@@shdfnd@physx@@QBEIXZ 10028520 f i ConvexHullUtils.obj
 0001:00027540       ?threePlaneIntersection@physx@@YA?AVPxVec3@1@ABVPxPlane@1@00@Z 10028540 f i ConvexHullUtils.obj
 0001:000275d0       ?to8@shdfnd@physx@@YAEG@Z  100285d0 f i ConvexHullUtils.obj
 0001:00027620       ?transform@Box@Gu@physx@@QBE?AVPxVec3@3@ABV43@@Z 10028620 f i ConvexHullUtils.obj
 0001:00027660       ?transform@PxMat33@physx@@QBE?BVPxVec3@2@ABV32@@Z 10028660 f i ConvexHullUtils.obj
 0001:000276e0       ?transformTranspose@PxMat33@physx@@QBE?BVPxVec3@2@ABV32@@Z 100286e0 f i ConvexHullUtils.obj
 0001:00027730       _cosf                      10028730 f i ConvexHullUtils.obj
 0001:00027760       _sinf                      10028760 f i ConvexHullUtils.obj
 0001:00027820       ??0ConvexMeshBuilder@physx@@QAE@_N@Z 10028820 f   ConvexMeshBuilder.obj
 0001:00027880       ??1ConvexMeshBuilder@physx@@QAE@XZ 10028880 f   ConvexMeshBuilder.obj
 0001:000278d0       ?build@ConvexMeshBuilder@physx@@QAE_NABVPxConvexMeshDesc@2@I_NPAVConvexHullLib@2@@Z 100288d0 f   ConvexMeshBuilder.obj
 0001:000279b0       ?save@ConvexMeshBuilder@physx@@QBE_NAAVPxOutputStream@2@_N@Z 100289b0 f   ConvexMeshBuilder.obj
 0001:00027c80       ?copy@ConvexMeshBuilder@physx@@QAE_NAAUConvexHullData@Gu@2@AAI@Z 10028c80 f   ConvexMeshBuilder.obj
 0001:00027d50       ?loadConvexHull@ConvexMeshBuilder@physx@@QAE_NABVPxConvexMeshDesc@2@PAVConvexHullLib@2@@Z 10028d50 f   ConvexMeshBuilder.obj
 0001:00028030       ?computeHullPolygons@ConvexMeshBuilder@physx@@QAE_NABIPBVPxVec3@2@0PBIAAVPxAllocatorCallback@2@AAIAAPAV32@4AAPAI4AAPAUPxHullPolygon@2@@Z 10029030 f   ConvexMeshBuilder.obj
 0001:000282e0       ?computeGaussMaps@ConvexMeshBuilder@physx@@QAE_NXZ 100292e0 f   ConvexMeshBuilder.obj
 0001:000283c0       ?computeMassInfo@ConvexMeshBuilder@physx@@QAEX_N@Z 100293c0 f   ConvexMeshBuilder.obj
 0001:00028640       ?computeInternalObjects@ConvexMeshBuilder@physx@@QAEXXZ 10029640 f   ConvexMeshBuilder.obj
 0001:00028d50       ??0?$ReflectionAllocator@VBigConvexData@physx@@@shdfnd@physx@@QAE@PBD@Z 10029d50 f i ConvexMeshBuilder.obj
 0001:00028d60       ??0CenterExtents@Gu@physx@@QAE@ABVPxBounds3@2@@Z 10029d60 f i ConvexMeshBuilder.obj
 0001:00028dc0       ??GPxMat33@physx@@QBE?BV01@XZ 10029dc0 f i ConvexMeshBuilder.obj
 0001:00028e10       ??_GBigConvexData@physx@@QAEPAXI@Z 10029e10 f i ConvexMeshBuilder.obj
 0001:00028e60       ?allocate@?$ReflectionAllocator@VBigConvexData@physx@@@shdfnd@physx@@QAEPAXIPBDH@Z 10029e60 f i ConvexMeshBuilder.obj
 0001:00028eb0       ?getExtents@PxBounds3@physx@@QBE?AVPxVec3@2@XZ 10029eb0 f i ConvexMeshBuilder.obj
 0001:00028f10       ?getMax@CenterExtents@Gu@physx@@QBE?AVPxVec3@3@XZ 10029f10 f i ConvexMeshBuilder.obj
 0001:00028f40       ?getMin@CenterExtents@Gu@physx@@QBE?AVPxVec3@3@XZ 10029f40 f i ConvexMeshBuilder.obj
 0001:00028f70       ?getName@?$ReflectionAllocator@VBigConvexData@physx@@@shdfnd@physx@@CAPBDXZ 10029f70 f i ConvexMeshBuilder.obj
 0001:00028fb0       ?getNextIndex3@shdfnd@physx@@YAII@Z 10029fb0 f i ConvexMeshBuilder.obj
 0001:00028fd0       ?largestAxis@shdfnd@physx@@YAIABVPxVec3@2@@Z 10029fd0 f i ConvexMeshBuilder.obj
 0001:00029030       ??0ConvexPolygonsBuilder@physx@@QAE@PAUConvexHullData@Gu@1@_N@Z 1002a030 f   ConvexPolygonsBuilder.obj
 0001:00029070       ??1ConvexPolygonsBuilder@physx@@QAE@XZ 1002a070 f   ConvexPolygonsBuilder.obj
 0001:000290b0       ?computeHullPolygons@ConvexPolygonsBuilder@physx@@QAE_NABIPBVPxVec3@2@0PBI@Z 1002a0b0 f   ConvexPolygonsBuilder.obj
 0001:00029450       ?createPolygonData@ConvexPolygonsBuilder@physx@@AAE_NXZ 1002a450 f   ConvexPolygonsBuilder.obj
 0001:00029f10       ?createTrianglesFromPolygons@ConvexPolygonsBuilder@physx@@AAE_NXZ 1002af10 f   ConvexPolygonsBuilder.obj
 0001:0002bc10       ??$?4VNamedAllocator@shdfnd@physx@@@?$Array@IVNamedAllocator@shdfnd@physx@@@shdfnd@physx@@QAEAAV012@ABV012@@Z 1002cc10 f i ConvexPolygonsBuilder.obj
 0001:0002bc80       ??$?_UUHullTriangleData@physx@@@@YAPAXIV?$ReflectionAllocator@UHullTriangleData@physx@@@shdfnd@physx@@PBDH@Z 1002cc80 f i ConvexPolygonsBuilder.obj
 0001:0002bca0       ??$PlaneEquation@U?$TriangleT@I@Gu@physx@@@@YA?AVPxPlane@physx@@ABU?$TriangleT@I@Gu@1@PBVPxVec3@1@@Z 1002cca0 f i ConvexPolygonsBuilder.obj
 0001:0002bd00       ??$copy@VNamedAllocator@shdfnd@physx@@@?$Array@VPair@@VNamedAllocator@shdfnd@physx@@@shdfnd@physx@@IAEXABV012@@Z 1002cd00 f i ConvexPolygonsBuilder.obj
 0001:0002bda0       ??$swap@E@shdfnd@physx@@YAXAAE0@Z 1002cda0 f i ConvexPolygonsBuilder.obj
 0001:0002bdd0       ??0?$Array@VPair@@VNamedAllocator@shdfnd@physx@@@shdfnd@physx@@QAE@ABV012@ABVNamedAllocator@12@@Z 1002cdd0 f i ConvexPolygonsBuilder.obj
 0001:0002be00       ??0?$Array@VPair@@VNamedAllocator@shdfnd@physx@@@shdfnd@physx@@QAE@ABVNamedAllocator@12@@Z 1002ce00 f i ConvexPolygonsBuilder.obj
 0001:0002be40       ??0?$ReflectionAllocator@UHullTriangleData@physx@@@shdfnd@physx@@QAE@PBD@Z 1002ce40 f i ConvexPolygonsBuilder.obj
 0001:0002be50       ??0ADJACENCIESCREATE@physx@@QAE@XZ 1002ce50 f i ConvexPolygonsBuilder.obj
 0001:0002bea0       ??0Pair@@QAE@II@Z          1002cea0 f i ConvexPolygonsBuilder.obj
 0001:0002bed0       ??1?$Array@VPair@@VNamedAllocator@shdfnd@physx@@@shdfnd@physx@@QAE@XZ 1002ced0 f i ConvexPolygonsBuilder.obj
 0001:0002bf30       ??1Pair@@QAE@XZ            1002cf30 f i ConvexPolygonsBuilder.obj
 0001:0002bf40       ??4?$Array@IVNamedAllocator@shdfnd@physx@@@shdfnd@physx@@QAEAAV012@ABV012@@Z 1002cf40 f i ConvexPolygonsBuilder.obj
 0001:0002bf60       ??A?$Array@VPair@@VNamedAllocator@shdfnd@physx@@@shdfnd@physx@@QAEAAVPair@@I@Z 1002cf60 f i ConvexPolygonsBuilder.obj
 0001:0002bfc0       ??_GPair@@QAEPAXI@Z        1002cfc0 f i ConvexPolygonsBuilder.obj
 0001:0002c4c0       ?GetAdjTri@AdjTriangle@physx@@QBEIW4SharedEdgeIndex@2@@Z 1002d4c0 f i ConvexPolygonsBuilder.obj
 0001:0002c770       ?HasActiveEdge@AdjTriangle@physx@@QBEHI@Z 1002d770 f i ConvexPolygonsBuilder.obj
 0001:0002c790       ?allocate@?$Array@VPair@@VNamedAllocator@shdfnd@physx@@@shdfnd@physx@@IAEPAVPair@@I@Z 1002d790 f i ConvexPolygonsBuilder.obj
 0001:0002c800       ?allocate@?$ReflectionAllocator@UHullTriangleData@physx@@@shdfnd@physx@@QAEPAXIPBDH@Z 1002d800 f i ConvexPolygonsBuilder.obj
 0001:0002c850       ?begin@?$Array@VPair@@VNamedAllocator@shdfnd@physx@@@shdfnd@physx@@QAEPAVPair@@XZ 1002d850 f i ConvexPolygonsBuilder.obj
 0001:0002c860       ?begin@?$Array@VPair@@VNamedAllocator@shdfnd@physx@@@shdfnd@physx@@QBEPBVPair@@XZ 1002d860 f i ConvexPolygonsBuilder.obj
 0001:0002c870       ?capacity@?$Array@VPair@@VNamedAllocator@shdfnd@physx@@@shdfnd@physx@@QBEIXZ 1002d870 f i ConvexPolygonsBuilder.obj
 0001:0002c890       ?capacityIncrement@?$Array@VPair@@VNamedAllocator@shdfnd@physx@@@shdfnd@physx@@IBEIXZ 1002d890 f i ConvexPolygonsBuilder.obj
 0001:0002c8d0       ?clear@?$Array@IVNamedAllocator@shdfnd@physx@@@shdfnd@physx@@QAEXXZ 1002d8d0 f i ConvexPolygonsBuilder.obj
 0001:0002c910       ?copy@?$Array@VPair@@VNamedAllocator@shdfnd@physx@@@shdfnd@physx@@KAXPAVPair@@0PBV4@@Z 1002d910 f i ConvexPolygonsBuilder.obj
 0001:0002c970       ?deallocate@?$Array@VPair@@VNamedAllocator@shdfnd@physx@@@shdfnd@physx@@IAEXPAX@Z 1002d970 f i ConvexPolygonsBuilder.obj
 0001:0002c990       ?destroy@?$Array@VPair@@VNamedAllocator@shdfnd@physx@@@shdfnd@physx@@KAXPAVPair@@0@Z 1002d990 f i ConvexPolygonsBuilder.obj
 0001:0002c9c0       ?empty@?$Array@VPair@@VNamedAllocator@shdfnd@physx@@@shdfnd@physx@@QBE_NXZ 1002d9c0 f i ConvexPolygonsBuilder.obj
 0001:0002c9f0       ?end@?$Array@IVNamedAllocator@shdfnd@physx@@@shdfnd@physx@@QAEPAIXZ 1002d9f0 f i ConvexPolygonsBuilder.obj
 0001:0002ca10       ?find@?$Array@IVNamedAllocator@shdfnd@physx@@@shdfnd@physx@@QAEPAIABI@Z 1002da10 f i ConvexPolygonsBuilder.obj
 0001:0002ca60       ?flip@?$TriangleT@I@Gu@physx@@QAEXXZ 1002da60 f i ConvexPolygonsBuilder.obj
 0001:0002ca90       ?forceSize_Unsafe@?$Array@IVNamedAllocator@shdfnd@physx@@@shdfnd@physx@@QAEXI@Z 1002da90 f i ConvexPolygonsBuilder.obj
 0001:0002caf0       ?getFaces@ConvexPolygonsBuilder@physx@@QBEPBUHullTriangleData@2@XZ 1002daf0 f i ConvexPolygonsBuilder.obj
 0001:0002cb10       ?getName@?$ReflectionAllocator@UHullTriangleData@physx@@@shdfnd@physx@@CAPBDXZ 1002db10 f i ConvexPolygonsBuilder.obj
 0001:0002cb50       ?getNbFaces@ConvexPolygonsBuilder@physx@@QBEIXZ 1002db50 f i ConvexPolygonsBuilder.obj
 0001:0002cb70       ?growAndPushBack@?$Array@VPair@@VNamedAllocator@shdfnd@physx@@@shdfnd@physx@@IAEAAVPair@@ABV4@@Z 1002db70 f i ConvexPolygonsBuilder.obj
 0001:0002ccb0       ?isInUserMemory@?$Array@VPair@@VNamedAllocator@shdfnd@physx@@@shdfnd@physx@@QBEIXZ 1002dcb0 f i ConvexPolygonsBuilder.obj
 0001:0002ccd0       ?pushBack@?$Array@VPair@@VNamedAllocator@shdfnd@physx@@@shdfnd@physx@@QAEAAVPair@@ABV4@@Z 1002dcd0 f i ConvexPolygonsBuilder.obj
 0001:0002cd70       ?remove@?$Array@IVNamedAllocator@shdfnd@physx@@@shdfnd@physx@@QAEXI@Z 1002dd70 f i ConvexPolygonsBuilder.obj
 0001:0002ce20       ?remove@?$Array@VPair@@VNamedAllocator@shdfnd@physx@@@shdfnd@physx@@QAEXI@Z 1002de20 f i ConvexPolygonsBuilder.obj
 0001:0002cf00       ?size@?$Array@VPair@@VNamedAllocator@shdfnd@physx@@@shdfnd@physx@@QBEIXZ 1002df00 f i ConvexPolygonsBuilder.obj
 0001:0002cf70       ??0QuickHullConvexHullLib@physx@@QAE@ABVPxConvexMeshDesc@1@ABUPxCookingParams@1@@Z 1002df70 f   QuickHullConvexHullLib.obj
 0001:0002d030       ??1QuickHullConvexHullLib@physx@@UAE@XZ 1002e030 f   QuickHullConvexHullLib.obj
 0001:0002d0d0       ?createConvexHull@QuickHullConvexHullLib@physx@@UAE?AW4Enum@PxConvexMeshCookingResult@2@XZ 1002e0d0 f   QuickHullConvexHullLib.obj
 0001:0002d4a0       ?fillConvexMeshDesc@QuickHullConvexHullLib@physx@@UAEXAAVPxConvexMeshDesc@2@@Z 1002e4a0 f   QuickHullConvexHullLib.obj
 0001:0002d510       ?createEdgeList@QuickHullConvexHullLib@physx@@UAE_NIPBEPAPAEPAPAG2@Z 1002e510 f   QuickHullConvexHullLib.obj
 0001:0002d890       ?expandHullOBB@QuickHullConvexHullLib@physx@@IAE?AW4Enum@PxConvexMeshCookingResult@2@XZ 1002e890 f   QuickHullConvexHullLib.obj
 0001:0002dce0       ?expandHull@QuickHullConvexHullLib@physx@@IAE?AW4Enum@PxConvexMeshCookingResult@2@XZ 1002ece0 f   QuickHullConvexHullLib.obj
 0001:0002e2b0       ?cleanupForSimplex@QuickHullConvexHullLib@physx@@IAE_NPAVPxVec3@2@IPAUQuickHullVertex@local@@1AAM2@Z 1002f2b0 f   QuickHullConvexHullLib.obj
 0001:0002ea30       ?fillConvexMeshDescFromQuickHull@QuickHullConvexHullLib@physx@@IAEXAAVPxConvexMeshDesc@2@@Z 1002fa30 f   QuickHullConvexHullLib.obj
 0001:0002ef50       ?fillConvexMeshDescFromCroppedHull@QuickHullConvexHullLib@physx@@IAEXAAVPxConvexMeshDesc@2@@Z 1002ff50 f   QuickHullConvexHullLib.obj
 0001:0002f300       ?getOppositeFaceDistance@QuickHullHalfEdge@local@@QBEMXZ 10030300 f   QuickHullConvexHullLib.obj
 0001:0002f3b0       ?mergeAdjacentFace@QuickHullFace@local@@QAE_NPAUQuickHullHalfEdge@2@AAV?$Array@PAUQuickHullFace@local@@VNamedAllocator@shdfnd@physx@@@shdfnd@physx@@@Z 100303b0 f   QuickHullConvexHullLib.obj
 0001:0002f550       ?checkFaceConsistency@QuickHullFace@local@@QAE_NXZ 10030550 f   QuickHullConvexHullLib.obj
 0001:0002f740       ?connectHalfEdges@QuickHullFace@local@@AAEPAU12@PAUQuickHullHalfEdge@2@0@Z 10030740 f   QuickHullConvexHullLib.obj
 0001:0002f850       ??0QuickHull@local@@QAE@ABUPxCookingParams@physx@@ABVPxConvexMeshDesc@3@@Z 10030850 f   QuickHullConvexHullLib.obj
 0001:0002f9e0       ??1QuickHull@local@@QAE@XZ 100309e0 f   QuickHullConvexHullLib.obj
 0001:0002fa60       ?preallocate@QuickHull@local@@QAEXI@Z 10030a60 f   QuickHullConvexHullLib.obj
 0001:0002fba0       ?parseInputVertices@QuickHull@local@@QAEXPBVPxVec3@physx@@I@Z 10030ba0 f   QuickHullConvexHullLib.obj
 0001:0002fc80       ?releaseHull@QuickHull@local@@QAEXXZ 10030c80 f   QuickHullConvexHullLib.obj
 0001:0002fcd0       ?setPrecomputedMinMax@QuickHull@local@@QAEXPBUQuickHullVertex@2@0MM@Z 10030cd0 f   QuickHullConvexHullLib.obj
 0001:0002fd60       ?buildHull@QuickHull@local@@QAE?AW4Enum@QuickHullResult@2@XZ 10030d60 f   QuickHullConvexHullLib.obj
 0001:0002ffd0       ?maxNumVertsPerFace@QuickHull@local@@QBEIXZ 10030fd0 f   QuickHullConvexHullLib.obj
 0001:00030050       ?computeMinMaxVerts@QuickHull@local@@IAEXXZ 10031050 f   QuickHullConvexHullLib.obj
 0001:00030300       ?findSimplex@QuickHull@local@@IAE_NXZ 10031300 f   QuickHullConvexHullLib.obj
 0001:00030730       ?addSimplex@QuickHull@local@@IAEXPAUQuickHullVertex@2@_N@Z 10031730 f   QuickHullConvexHullLib.obj
 0001:00030c20       ?nextPointToAdd@QuickHull@local@@IAEPAUQuickHullVertex@2@AAPAUQuickHullFace@2@@Z 10031c20 f   QuickHullConvexHullLib.obj
 0001:00030d10       ?addPointToHull@QuickHull@local@@IAE_NPBUQuickHullVertex@2@AAUQuickHullFace@2@AA_N@Z 10031d10 f   QuickHullConvexHullLib.obj
 0001:00030f80       ?createTriangle@QuickHull@local@@IAEPAUQuickHullFace@2@ABUQuickHullVertex@2@00@Z 10031f80 f   QuickHullConvexHullLib.obj
 0001:00031050       ?addPointToFace@QuickHull@local@@IAEXAAUQuickHullFace@2@PAUQuickHullVertex@2@M@Z 10032050 f   QuickHullConvexHullLib.obj
 0001:00031120       ?removeEyePointFromFace@QuickHull@local@@IAEXAAUQuickHullFace@2@PBUQuickHullVertex@2@@Z 10032120 f   QuickHullConvexHullLib.obj
 0001:00031190       ?calculateHorizon@QuickHull@local@@IAEXABVPxVec3@physx@@PAUQuickHullHalfEdge@2@AAUQuickHullFace@2@AAV?$Array@PAUQuickHullHalfEdge@local@@VNamedAllocator@shdfnd@physx@@@shdfnd@4@AAV?$Array@PAUQuickHullFace@local@@VNamedAllocator@shdfnd@physx@@@84@@Z 10032190 f   QuickHullConvexHullLib.obj
 0001:00031280       ?addNewFacesFromHorizon@QuickHull@local@@IAEXPBUQuickHullVertex@2@ABV?$Array@PAUQuickHullHalfEdge@local@@VNamedAllocator@shdfnd@physx@@@shdfnd@physx@@AAV?$Array@PAUQuickHullFace@local@@VNamedAllocator@shdfnd@physx@@@56@@Z 10032280 f   QuickHullConvexHullLib.obj
 0001:00031380       ?doAdjacentMerge@QuickHull@local@@IAE_NAAUQuickHullFace@2@_NAA_N@Z 10032380 f   QuickHullConvexHullLib.obj
 0001:00031600       ?doPostAdjacentMerge@QuickHull@local@@IAE_NAAUQuickHullFace@2@M@Z 10032600 f   QuickHullConvexHullLib.obj
 0001:00031770       ?deleteFacePoints@QuickHull@local@@IAEXAAUQuickHullFace@2@PAU32@@Z 10032770 f   QuickHullConvexHullLib.obj
 0001:00031850       ?resolveUnclaimedPoints@QuickHull@local@@IAEXABV?$Array@PAUQuickHullFace@local@@VNamedAllocator@shdfnd@physx@@@shdfnd@physx@@@Z 10032850 f   QuickHullConvexHullLib.obj
 0001:00031970       ?postMergeHull@QuickHull@local@@IAEXXZ 10032970 f   QuickHullConvexHullLib.obj
 0001:00031a30       ?canMergeFaces@QuickHull@local@@IAE_NABUQuickHullHalfEdge@2@@Z 10032a30 f   QuickHullConvexHullLib.obj
 0001:00032070       ?getExpandPoint@local@@YAXABUQuickHullHalfEdge@1@AAUExpandPoint@1@PBV?$Array@IVNamedAllocator@shdfnd@physx@@@shdfnd@physx@@@Z 10033070 f   QuickHullConvexHullLib.obj
 0001:00032240       ?addExpandPoint@local@@YAXABUExpandPoint@1@AAV?$Array@UExpandPoint@local@@VNamedAllocator@shdfnd@physx@@@shdfnd@physx@@@Z 10033240 f   QuickHullConvexHullLib.obj
 0001:00032330       ??$?2V?$ReflectionAllocator@VQuickHull@local@@@shdfnd@physx@@@UserAllocated@shdfnd@physx@@SAPAXIV?$ReflectionAllocator@VQuickHull@local@@@12@PBDH@Z 10033330 f i QuickHullConvexHullLib.obj
 0001:00032350       ??$PX_UNUSED@PAUQuickHullFace@local@@@@YAXABQAUQuickHullFace@local@@@Z 10033350 f i QuickHullConvexHullLib.obj
 0001:00032360       ??$PX_UNUSED@PBUQuickHullVertex@local@@@@YAXABQBUQuickHullVertex@local@@@Z 10033360 f i QuickHullConvexHullLib.obj
 0001:00032370       ??0?$Array@PAUQuickHullFace@local@@VNamedAllocator@shdfnd@physx@@@shdfnd@physx@@QAE@ABVNamedAllocator@12@@Z 10033370 f i QuickHullConvexHullLib.obj
 0001:000323b0       ??0?$Array@PAUQuickHullHalfEdge@local@@VNamedAllocator@shdfnd@physx@@@shdfnd@physx@@QAE@ABVNamedAllocator@12@@Z 100333b0 f i QuickHullConvexHullLib.obj
 0001:000323f0       ??0?$Array@PAUQuickHullVertex@local@@VNamedAllocator@shdfnd@physx@@@shdfnd@physx@@QAE@ABVNamedAllocator@12@@Z 100333f0 f i QuickHullConvexHullLib.obj
 0001:00032430       ??0?$Array@UExpandPoint@local@@VNamedAllocator@shdfnd@physx@@@shdfnd@physx@@QAE@ABVNamedAllocator@12@@Z 10033430 f i QuickHullConvexHullLib.obj
 0001:00032470       ??0?$MemBlock@UQuickHullFace@local@@$00@local@@QAE@XZ 10033470 f i QuickHullConvexHullLib.obj
 0001:000324c0       ??0?$MemBlock@UQuickHullHalfEdge@local@@$0A@@local@@QAE@XZ 100334c0 f i QuickHullConvexHullLib.obj
 0001:00032510       ??0?$ReflectionAllocator@VQuickHull@local@@@shdfnd@physx@@QAE@PBD@Z 10033510 f i QuickHullConvexHullLib.obj
 0001:00032520       ??0?$ScopedPointer@UQuickHullHalfEdge@local@@VTempAllocator@shdfnd@physx@@@shdfnd@physx@@QAE@XZ 10033520 f i QuickHullConvexHullLib.obj
 0001:00032540       ??0?$ScopedPointer@VPxVec3@physx@@VTempAllocator@shdfnd@2@@shdfnd@physx@@QAE@XZ 10033540 f i QuickHullConvexHullLib.obj
 0001:00032560       ??0ConvexHullLib@physx@@QAE@ABVPxConvexMeshDesc@1@ABUPxCookingParams@1@@Z 10033560 f i QuickHullConvexHullLib.obj
 0001:000325b0       ??0ExpandPoint@local@@QAE@ABU01@@Z 100335b0 f i QuickHullConvexHullLib.obj
 0001:00032600       ??0ExpandPoint@local@@QAE@XZ 10033600 f i QuickHullConvexHullLib.obj
 0001:00032620       ??0PxTransform@physx@@QAE@XZ 10033620 f i QuickHullConvexHullLib.obj
 0001:00032650       ??0QuickHullFace@local@@QAE@I@Z 10033650 f i QuickHullConvexHullLib.obj
 0001:000326e0       ??0QuickHullFace@local@@QAE@XZ 100336e0 f i QuickHullConvexHullLib.obj
 0001:00032770       ??0QuickHullHalfEdge@local@@QAE@I@Z 10033770 f i QuickHullConvexHullLib.obj
 0001:000327c0       ??0QuickHullVertex@local@@QAE@XZ 100337c0 f i QuickHullConvexHullLib.obj
 0001:000327e0       ??1?$Array@PAUQuickHullFace@local@@VNamedAllocator@shdfnd@physx@@@shdfnd@physx@@QAE@XZ 100337e0 f i QuickHullConvexHullLib.obj
 0001:00032840       ??1?$Array@PAUQuickHullHalfEdge@local@@VNamedAllocator@shdfnd@physx@@@shdfnd@physx@@QAE@XZ 10033840 f i QuickHullConvexHullLib.obj
 0001:000328a0       ??1?$Array@PAUQuickHullVertex@local@@VNamedAllocator@shdfnd@physx@@@shdfnd@physx@@QAE@XZ 100338a0 f i QuickHullConvexHullLib.obj
 0001:00032900       ??1?$Array@UExpandPoint@local@@VNamedAllocator@shdfnd@physx@@@shdfnd@physx@@QAE@XZ 10033900 f i QuickHullConvexHullLib.obj
 0001:00032960       ??1?$Array@VHalfEdge@ConvexHull@physx@@VNamedAllocator@shdfnd@3@@shdfnd@physx@@QAE@XZ 10033960 f i QuickHullConvexHullLib.obj
 0001:000329c0       ??1?$Array@VPxPlane@physx@@VNamedAllocator@shdfnd@2@@shdfnd@physx@@QAE@XZ 100339c0 f i QuickHullConvexHullLib.obj
 0001:00032a20       ??1?$MemBlock@UQuickHullFace@local@@$00@local@@QAE@XZ 10033a20 f i QuickHullConvexHullLib.obj
 0001:00032a90       ??1?$MemBlock@UQuickHullHalfEdge@local@@$0A@@local@@QAE@XZ 10033a90 f i QuickHullConvexHullLib.obj
 0001:00032b00       ??1?$ScopedPointer@UQuickHullHalfEdge@local@@VTempAllocator@shdfnd@physx@@@shdfnd@physx@@QAE@XZ 10033b00 f i QuickHullConvexHullLib.obj
 0001:00032b30       ??1?$ScopedPointer@VPxVec3@physx@@VTempAllocator@shdfnd@2@@shdfnd@physx@@QAE@XZ 10033b30 f i QuickHullConvexHullLib.obj
 0001:00032b60       ??1ConvexHull@physx@@QAE@XZ 10033b60 f i QuickHullConvexHullLib.obj
 0001:00032b90       ??1QuickHullFace@local@@QAE@XZ 10033b90 f i QuickHullConvexHullLib.obj
 0001:00032ba0       ??4?$PxFlags@W4Enum@PxConvexFlag@physx@@G@physx@@QAEAAV01@ABV01@@Z 10033ba0 f i QuickHullConvexHullLib.obj
 0001:00032bc0       ??4QuickHullVertex@local@@QAEAAU01@ABU01@@Z 10033bc0 f i QuickHullConvexHullLib.obj
 0001:00032c00       ??8ExpandPoint@local@@QBE_NABU01@@Z 10033c00 f i QuickHullConvexHullLib.obj
 0001:00032c80       ??8QuickHullVertex@local@@QBE_NABU01@@Z 10033c80 f i QuickHullConvexHullLib.obj
 0001:00032cb0       ??A?$Array@IVNamedAllocator@shdfnd@physx@@@shdfnd@physx@@QBEABII@Z 10033cb0 f i QuickHullConvexHullLib.obj
 0001:00032d10       ??A?$Array@PAUQuickHullFace@local@@VNamedAllocator@shdfnd@physx@@@shdfnd@physx@@QAEAAPAUQuickHullFace@local@@I@Z 10033d10 f i QuickHullConvexHullLib.obj
 0001:00032d70       ??A?$Array@PAUQuickHullFace@local@@VNamedAllocator@shdfnd@physx@@@shdfnd@physx@@QBEABQAUQuickHullFace@local@@I@Z 10033d70 f i QuickHullConvexHullLib.obj
 0001:00032dd0       ??A?$Array@PAUQuickHullHalfEdge@local@@VNamedAllocator@shdfnd@physx@@@shdfnd@physx@@QAEAAPAUQuickHullHalfEdge@local@@I@Z 10033dd0 f i QuickHullConvexHullLib.obj
 0001:00032e30       ??A?$Array@PAUQuickHullHalfEdge@local@@VNamedAllocator@shdfnd@physx@@@shdfnd@physx@@QBEABQAUQuickHullHalfEdge@local@@I@Z 10033e30 f i QuickHullConvexHullLib.obj
 0001:00032e90       ??A?$Array@PAUQuickHullVertex@local@@VNamedAllocator@shdfnd@physx@@@shdfnd@physx@@QAEAAPAUQuickHullVertex@local@@I@Z 10033e90 f i QuickHullConvexHullLib.obj
 0001:00032ef0       ??A?$Array@UExpandPoint@local@@VNamedAllocator@shdfnd@physx@@@shdfnd@physx@@QAEAAUExpandPoint@local@@I@Z 10033ef0 f i QuickHullConvexHullLib.obj
 0001:00032f50       ??A?$Array@VPxPlane@physx@@VNamedAllocator@shdfnd@2@@shdfnd@physx@@QAEAAVPxPlane@2@I@Z 10033f50 f i QuickHullConvexHullLib.obj
 0001:00032fb0       ??B?$ScopedPointer@UQuickHullHalfEdge@local@@VTempAllocator@shdfnd@physx@@@shdfnd@physx@@QBEPAUQuickHullHalfEdge@local@@XZ 10033fb0 f i QuickHullConvexHullLib.obj
 0001:00032fc0       ??B?$ScopedPointer@VPxVec3@physx@@VTempAllocator@shdfnd@2@@shdfnd@physx@@QBEPAVPxVec3@2@XZ 10033fc0 f i QuickHullConvexHullLib.obj
 0001:00032fd0       ??KPxVec3@physx@@QBE?AV01@M@Z 10033fd0 f i QuickHullConvexHullLib.obj
 0001:00033040       ??_GConvexHull@physx@@QAEPAXI@Z 10034040 f i QuickHullConvexHullLib.obj
 0001:00033090       ??_GQuickHull@local@@QAEPAXI@Z 10034090 f i QuickHullConvexHullLib.obj
 0001:000330e0       ??_EQuickHullConvexHullLib@physx@@UAEPAXI@Z 100340e0 f i QuickHullConvexHullLib.obj
 0001:000330e0       ??_GQuickHullConvexHullLib@physx@@UAEPAXI@Z 100340e0 f i QuickHullConvexHullLib.obj
 0001:00033130       ??__G@YGXPAX0IIP6EPAX00@Z@Z 10034130 f i QuickHullConvexHullLib.obj
 0001:00033190       ?allocate@?$Array@PAUQuickHullFace@local@@VNamedAllocator@shdfnd@physx@@@shdfnd@physx@@IAEPAPAUQuickHullFace@local@@I@Z 10034190 f i QuickHullConvexHullLib.obj
 0001:00033200       ?allocate@?$Array@PAUQuickHullHalfEdge@local@@VNamedAllocator@shdfnd@physx@@@shdfnd@physx@@IAEPAPAUQuickHullHalfEdge@local@@I@Z 10034200 f i QuickHullConvexHullLib.obj
 0001:00033270       ?allocate@?$Array@PAUQuickHullVertex@local@@VNamedAllocator@shdfnd@physx@@@shdfnd@physx@@IAEPAPAUQuickHullVertex@local@@I@Z 10034270 f i QuickHullConvexHullLib.obj
 0001:000332e0       ?allocate@?$Array@UExpandPoint@local@@VNamedAllocator@shdfnd@physx@@@shdfnd@physx@@IAEPAUExpandPoint@local@@I@Z 100342e0 f i QuickHullConvexHullLib.obj
 0001:00033350       ?allocate@?$ReflectionAllocator@VQuickHull@local@@@shdfnd@physx@@QAEPAXIPBDH@Z 10034350 f i QuickHullConvexHullLib.obj
 0001:000333a0       ?capacity@?$Array@PAUQuickHullFace@local@@VNamedAllocator@shdfnd@physx@@@shdfnd@physx@@QBEIXZ 100343a0 f i QuickHullConvexHullLib.obj
 0001:000333c0       ?capacity@?$Array@PAUQuickHullHalfEdge@local@@VNamedAllocator@shdfnd@physx@@@shdfnd@physx@@QBEIXZ 100343c0 f i QuickHullConvexHullLib.obj
 0001:000333e0       ?capacity@?$Array@PAUQuickHullVertex@local@@VNamedAllocator@shdfnd@physx@@@shdfnd@physx@@QBEIXZ 100343e0 f i QuickHullConvexHullLib.obj
 0001:00033400       ?capacity@?$Array@UExpandPoint@local@@VNamedAllocator@shdfnd@physx@@@shdfnd@physx@@QBEIXZ 10034400 f i QuickHullConvexHullLib.obj
 0001:00033420       ?capacityIncrement@?$Array@PAUQuickHullFace@local@@VNamedAllocator@shdfnd@physx@@@shdfnd@physx@@IBEIXZ 10034420 f i QuickHullConvexHullLib.obj
 0001:00033460       ?capacityIncrement@?$Array@PAUQuickHullHalfEdge@local@@VNamedAllocator@shdfnd@physx@@@shdfnd@physx@@IBEIXZ 10034460 f i QuickHullConvexHullLib.obj
 0001:000334a0       ?capacityIncrement@?$Array@PAUQuickHullVertex@local@@VNamedAllocator@shdfnd@physx@@@shdfnd@physx@@IBEIXZ 100344a0 f i QuickHullConvexHullLib.obj
 0001:000334e0       ?capacityIncrement@?$Array@UExpandPoint@local@@VNamedAllocator@shdfnd@physx@@@shdfnd@physx@@IBEIXZ 100344e0 f i QuickHullConvexHullLib.obj
 0001:00033520       ?clear@?$Array@PAUQuickHullFace@local@@VNamedAllocator@shdfnd@physx@@@shdfnd@physx@@QAEXXZ 10034520 f i QuickHullConvexHullLib.obj
 0001:00033560       ?clear@?$Array@PAUQuickHullHalfEdge@local@@VNamedAllocator@shdfnd@physx@@@shdfnd@physx@@QAEXXZ 10034560 f i QuickHullConvexHullLib.obj
 0001:000335a0       ?clear@?$Array@PAUQuickHullVertex@local@@VNamedAllocator@shdfnd@physx@@@shdfnd@physx@@QAEXXZ 100345a0 f i QuickHullConvexHullLib.obj
 0001:000335e0       ?computeNormalAndCentroid@QuickHullFace@local@@QAEXXZ 100345e0 f i QuickHullConvexHullLib.obj
 0001:000337e0       ?copy@?$Array@PAUQuickHullFace@local@@VNamedAllocator@shdfnd@physx@@@shdfnd@physx@@KAXPAPAUQuickHullFace@local@@0PBQAU45@@Z 100347e0 f i QuickHullConvexHullLib.obj
 0001:00033830       ?copy@?$Array@PAUQuickHullHalfEdge@local@@VNamedAllocator@shdfnd@physx@@@shdfnd@physx@@KAXPAPAUQuickHullHalfEdge@local@@0PBQAU45@@Z 10034830 f i QuickHullConvexHullLib.obj
 0001:00033880       ?copy@?$Array@PAUQuickHullVertex@local@@VNamedAllocator@shdfnd@physx@@@shdfnd@physx@@KAXPAPAUQuickHullVertex@local@@0PBQAU45@@Z 10034880 f i QuickHullConvexHullLib.obj
 0001:000338d0       ?copy@?$Array@UExpandPoint@local@@VNamedAllocator@shdfnd@physx@@@shdfnd@physx@@KAXPAUExpandPoint@local@@0PBU45@@Z 100348d0 f i QuickHullConvexHullLib.obj
 0001:00033920       ?deallocate@?$Array@PAUQuickHullFace@local@@VNamedAllocator@shdfnd@physx@@@shdfnd@physx@@IAEXPAX@Z 10034920 f i QuickHullConvexHullLib.obj
 0001:00033940       ?deallocate@?$Array@PAUQuickHullHalfEdge@local@@VNamedAllocator@shdfnd@physx@@@shdfnd@physx@@IAEXPAX@Z 10034940 f i QuickHullConvexHullLib.obj
 0001:00033960       ?deallocate@?$Array@PAUQuickHullVertex@local@@VNamedAllocator@shdfnd@physx@@@shdfnd@physx@@IAEXPAX@Z 10034960 f i QuickHullConvexHullLib.obj
 0001:00033980       ?deallocate@?$Array@UExpandPoint@local@@VNamedAllocator@shdfnd@physx@@@shdfnd@physx@@IAEXPAX@Z 10034980 f i QuickHullConvexHullLib.obj
 0001:000339a0       ?destroy@?$Array@PAUQuickHullFace@local@@VNamedAllocator@shdfnd@physx@@@shdfnd@physx@@KAXPAPAUQuickHullFace@local@@0@Z 100349a0 f i QuickHullConvexHullLib.obj
 0001:000339c0       ?destroy@?$Array@PAUQuickHullHalfEdge@local@@VNamedAllocator@shdfnd@physx@@@shdfnd@physx@@KAXPAPAUQuickHullHalfEdge@local@@0@Z 100349c0 f i QuickHullConvexHullLib.obj
 0001:000339e0       ?destroy@?$Array@PAUQuickHullVertex@local@@VNamedAllocator@shdfnd@physx@@@shdfnd@physx@@KAXPAPAUQuickHullVertex@local@@0@Z 100349e0 f i QuickHullConvexHullLib.obj
 0001:00033a00       ?destroy@?$Array@UExpandPoint@local@@VNamedAllocator@shdfnd@physx@@@shdfnd@physx@@KAXPAUExpandPoint@local@@0@Z 10034a00 f i QuickHullConvexHullLib.obj
 0001:00033a20       ?distanceToPlane@QuickHullFace@local@@QBEMVPxVec3@physx@@@Z 10034a20 f i QuickHullConvexHullLib.obj
 0001:00033a60       ?getEdge@QuickHullFace@local@@QBEPAUQuickHullHalfEdge@2@I@Z 10034a60 f i QuickHullConvexHullLib.obj
 0001:00033aa0       ?getFreeHullFace@QuickHull@local@@IAEPAUQuickHullFace@2@XZ 10034aa0 f i QuickHullConvexHullLib.obj
 0001:00033ac0       ?getFreeHullHalfEdge@QuickHull@local@@IAEPAUQuickHullHalfEdge@2@XZ 10034ac0 f i QuickHullConvexHullLib.obj
 0001:00033ae0       ?getFreeItem@?$MemBlock@UQuickHullFace@local@@$00@local@@QAEPAUQuickHullFace@2@XZ 10034ae0 f i QuickHullConvexHullLib.obj
 0001:00033c60       ?getFreeItem@?$MemBlock@UQuickHullHalfEdge@local@@$0A@@local@@QAEPAUQuickHullHalfEdge@2@XZ 10034c60 f i QuickHullConvexHullLib.obj
 0001:00033dd0       ?getHead@QuickHullHalfEdge@local@@QBEABUQuickHullVertex@2@XZ 10034dd0 f i QuickHullConvexHullLib.obj
 0001:00033e20       ?getItem@?$MemBlock@UQuickHullFace@local@@$00@local@@QAEPAUQuickHullFace@2@I@Z 10034e20 f i QuickHullConvexHullLib.obj
 0001:00033ee0       ?getName@?$ReflectionAllocator@VQuickHull@local@@@shdfnd@physx@@CAPBDXZ 10034ee0 f i QuickHullConvexHullLib.obj
 0001:00033f20       ?getNbHullVerts@QuickHull@local@@IAEIXZ 10034f20 f i QuickHullConvexHullLib.obj
 0001:00033f40       ?getOppositeFace@QuickHullHalfEdge@local@@QBEPAUQuickHullFace@2@XZ 10034f40 f i QuickHullConvexHullLib.obj
 0001:00033f60       ?getTail@QuickHullHalfEdge@local@@QBEABUQuickHullVertex@2@XZ 10034f60 f i QuickHullConvexHullLib.obj
 0001:00033f70       ?grow@?$Array@PAUQuickHullFace@local@@VNamedAllocator@shdfnd@physx@@@shdfnd@physx@@IAEXI@Z 10034f70 f i QuickHullConvexHullLib.obj
 0001:00033fd0       ?grow@?$Array@PAUQuickHullHalfEdge@local@@VNamedAllocator@shdfnd@physx@@@shdfnd@physx@@IAEXI@Z 10034fd0 f i QuickHullConvexHullLib.obj
 0001:00034030       ?grow@?$Array@PAUQuickHullVertex@local@@VNamedAllocator@shdfnd@physx@@@shdfnd@physx@@IAEXI@Z 10035030 f i QuickHullConvexHullLib.obj
 0001:00034090       ?grow@?$Array@UExpandPoint@local@@VNamedAllocator@shdfnd@physx@@@shdfnd@physx@@IAEXI@Z 10035090 f i QuickHullConvexHullLib.obj
 0001:000340f0       ?growAndPushBack@?$Array@PAUQuickHullFace@local@@VNamedAllocator@shdfnd@physx@@@shdfnd@physx@@IAEAAPAUQuickHullFace@local@@ABQAU45@@Z 100350f0 f i QuickHullConvexHullLib.obj
 0001:00034220       ?growAndPushBack@?$Array@PAUQuickHullHalfEdge@local@@VNamedAllocator@shdfnd@physx@@@shdfnd@physx@@IAEAAPAUQuickHullHalfEdge@local@@ABQAU45@@Z 10035220 f i QuickHullConvexHullLib.obj
 0001:00034350       ?growAndPushBack@?$Array@PAUQuickHullVertex@local@@VNamedAllocator@shdfnd@physx@@@shdfnd@physx@@IAEAAPAUQuickHullVertex@local@@ABQAU45@@Z 10035350 f i QuickHullConvexHullLib.obj
 0001:00034480       ?growAndPushBack@?$Array@UExpandPoint@local@@VNamedAllocator@shdfnd@physx@@@shdfnd@physx@@IAEAAUExpandPoint@local@@ABU45@@Z 10035480 f i QuickHullConvexHullLib.obj
 0001:000345a0       ?init@?$MemBlock@UQuickHullFace@local@@$00@local@@QAEXI@Z 100355a0 f i QuickHullConvexHullLib.obj
 0001:00034680       ?init@?$MemBlock@UQuickHullHalfEdge@local@@$0A@@local@@QAEXI@Z 10035680 f i QuickHullConvexHullLib.obj
 0001:00034750       ?isInUserMemory@?$Array@PAUQuickHullFace@local@@VNamedAllocator@shdfnd@physx@@@shdfnd@physx@@QBEIXZ 10035750 f i QuickHullConvexHullLib.obj
 0001:00034770       ?isInUserMemory@?$Array@PAUQuickHullHalfEdge@local@@VNamedAllocator@shdfnd@physx@@@shdfnd@physx@@QBEIXZ 10035770 f i QuickHullConvexHullLib.obj
 0001:00034790       ?isInUserMemory@?$Array@PAUQuickHullVertex@local@@VNamedAllocator@shdfnd@physx@@@shdfnd@physx@@QBEIXZ 10035790 f i QuickHullConvexHullLib.obj
 0001:000347b0       ?isInUserMemory@?$Array@UExpandPoint@local@@VNamedAllocator@shdfnd@physx@@@shdfnd@physx@@QBEIXZ 100357b0 f i QuickHullConvexHullLib.obj
 0001:000347d0       ?isTriangle@QuickHullFace@local@@ABE_NXZ 100357d0 f i QuickHullConvexHullLib.obj
 0001:00034800       ?pushBack@?$Array@PAUQuickHullFace@local@@VNamedAllocator@shdfnd@physx@@@shdfnd@physx@@QAEAAPAUQuickHullFace@local@@ABQAU45@@Z 10035800 f i QuickHullConvexHullLib.obj
 0001:00034880       ?pushBack@?$Array@PAUQuickHullHalfEdge@local@@VNamedAllocator@shdfnd@physx@@@shdfnd@physx@@QAEAAPAUQuickHullHalfEdge@local@@ABQAU45@@Z 10035880 f i QuickHullConvexHullLib.obj
 0001:00034900       ?pushBack@?$Array@PAUQuickHullVertex@local@@VNamedAllocator@shdfnd@physx@@@shdfnd@physx@@QAEAAPAUQuickHullVertex@local@@ABQAU45@@Z 10035900 f i QuickHullConvexHullLib.obj
 0001:00034980       ?pushBack@?$Array@UExpandPoint@local@@VNamedAllocator@shdfnd@physx@@@shdfnd@physx@@QAEAAUExpandPoint@local@@ABU45@@Z 10035980 f i QuickHullConvexHullLib.obj
 0001:00034a00       ?recreate@?$Array@PAUQuickHullFace@local@@VNamedAllocator@shdfnd@physx@@@shdfnd@physx@@IAEXI@Z 10035a00 f i QuickHullConvexHullLib.obj
 0001:00034ad0       ?recreate@?$Array@PAUQuickHullHalfEdge@local@@VNamedAllocator@shdfnd@physx@@@shdfnd@physx@@IAEXI@Z 10035ad0 f i QuickHullConvexHullLib.obj
 0001:00034ba0       ?recreate@?$Array@PAUQuickHullVertex@local@@VNamedAllocator@shdfnd@physx@@@shdfnd@physx@@IAEXI@Z 10035ba0 f i QuickHullConvexHullLib.obj
 0001:00034c70       ?recreate@?$Array@UExpandPoint@local@@VNamedAllocator@shdfnd@physx@@@shdfnd@physx@@IAEXI@Z 10035c70 f i QuickHullConvexHullLib.obj
 0001:00034d40       ?reserve@?$Array@PAUQuickHullFace@local@@VNamedAllocator@shdfnd@physx@@@shdfnd@physx@@QAEXI@Z 10035d40 f i QuickHullConvexHullLib.obj
 0001:00034d70       ?reserve@?$Array@PAUQuickHullHalfEdge@local@@VNamedAllocator@shdfnd@physx@@@shdfnd@physx@@QAEXI@Z 10035d70 f i QuickHullConvexHullLib.obj
 0001:00034da0       ?reserve@?$Array@PAUQuickHullVertex@local@@VNamedAllocator@shdfnd@physx@@@shdfnd@physx@@QAEXI@Z 10035da0 f i QuickHullConvexHullLib.obj
 0001:00034dd0       ?reserve@?$Array@UExpandPoint@local@@VNamedAllocator@shdfnd@physx@@@shdfnd@physx@@QAEXI@Z 10035dd0 f i QuickHullConvexHullLib.obj
 0001:00034e00       ?reset@?$MemBlock@UQuickHullFace@local@@$00@local@@QAEXXZ 10035e00 f i QuickHullConvexHullLib.obj
 0001:00034e90       ?reset@?$MemBlock@UQuickHullHalfEdge@local@@$0A@@local@@QAEXXZ 10035e90 f i QuickHullConvexHullLib.obj
 0001:00034f20       ?setTwin@QuickHullHalfEdge@local@@QAEXPAU12@@Z 10035f20 f i QuickHullConvexHullLib.obj
 0001:00034f40       ?size@?$Array@PAUQuickHullFace@local@@VNamedAllocator@shdfnd@physx@@@shdfnd@physx@@QBEIXZ 10035f40 f i QuickHullConvexHullLib.obj
 0001:00034f60       ?size@?$Array@PAUQuickHullHalfEdge@local@@VNamedAllocator@shdfnd@physx@@@shdfnd@physx@@QBEIXZ 10035f60 f i QuickHullConvexHullLib.obj
 0001:00034f80       ?size@?$Array@PAUQuickHullVertex@local@@VNamedAllocator@shdfnd@physx@@@shdfnd@physx@@QBEIXZ 10035f80 f i QuickHullConvexHullLib.obj
 0001:00034fa0       ?size@?$Array@UExpandPoint@local@@VNamedAllocator@shdfnd@physx@@@shdfnd@physx@@QBEIXZ 10035fa0 f i QuickHullConvexHullLib.obj
 0001:00035010       ?computeVolumeIntegrals@physx@@YA_NABVPxSimpleTriangleMesh@1@MAAUPxIntegrals@1@@Z 10036010 f   VolumeIntegration.obj
 0001:00035070       ?computeVolumeIntegralsEberly@physx@@YA_NABVPxConvexMeshDesc@1@MAAUPxIntegrals@1@ABVPxVec3@1@@Z 10036070 f   VolumeIntegration.obj
 0001:000350c0       ?computeVolumeIntegralsEberlySIMD@physx@@YA_NABVPxConvexMeshDesc@1@MAAUPxIntegrals@1@ABVPxVec3@1@@Z 100360c0 f   VolumeIntegration.obj
 0001:00038c30       ??$swap@VPxVec3@physx@@@shdfnd@physx@@YAXAAVPxVec3@1@0@Z 10039c30 f i VolumeIntegration.obj
 0001:00038c60       ??0PxSimpleTriangleMesh@physx@@QAE@XZ 10039c60 f i VolumeIntegration.obj
 0001:00038c90       ??4?$PxFlags@W4Enum@PxMeshFlag@physx@@G@physx@@QAEAAV01@ABV01@@Z 10039c90 f i VolumeIntegration.obj
 0001:00038cb0       ??4PxSimpleTriangleMesh@physx@@QAEAAV01@ABV01@@Z 10039cb0 f i VolumeIntegration.obj
 0001:00038d10       ?FAllGrtr@aos@shdfnd@physx@@YAIT__m128@@0@Z 10039d10 f i VolumeIntegration.obj
 0001:00038dd0       ?V4Cross@aos@shdfnd@physx@@YA?AT__m128@@T4@0@Z 10039dd0 f i VolumeIntegration.obj
 0001:00038ea0       ?V4Dot3@aos@shdfnd@physx@@YA?AT__m128@@T4@0@Z 10039ea0 f i VolumeIntegration.obj
 0001:00038f60       ?V4PermYZXW@aos@shdfnd@physx@@YA?AT__m128@@T4@@Z 10039f60 f i VolumeIntegration.obj
 0001:00038fa0       ?V4ScaleInv@aos@shdfnd@physx@@YA?AT__m128@@T4@0@Z 10039fa0 f i VolumeIntegration.obj
 0001:00039020       ?Vec4V_From_PxVec3_WUndefined@aos@shdfnd@physx@@YA?AT__m128@@ABVPxVec3@3@@Z 1003a020 f i VolumeIntegration.obj
 0001:00039070       ?isZero@PxVec3@physx@@QBE_NXZ 1003a070 f i VolumeIntegration.obj
 0001:000393e0       _PxSetPhysXCookingDelayLoadHook 1003a3e0 f   WindowsCookingDelayLoadHook.obj
 0001:000393f0       ?cookingDelayHook@@YGP6GHXZIPAUDelayLoadInfo@@@Z 1003a3f0 f   WindowsCookingDelayLoadHook.obj
 0001:00039450       ?loadLibrary@Cm@physx@@YGPAUHINSTANCE__@@PBD@Z 1003a450 f i WindowsCookingDelayLoadHook.obj
 0001:00039470       ?physXCommonDliNotePreLoadLibrary@Cm@physx@@YGP6GHXZPBDPBVPxDelayLoadHook@2@@Z 1003a470 f i WindowsCookingDelayLoadHook.obj
 0001:000394e0       __imp_load_??0RadixSortBuffered@Cm@physx@@QAE@XZ 1003a4e0 f   PhysXCommon_32:PhysXCommon_32.dll
 0001:000394ea       ??0RadixSortBuffered@Cm@physx@@QAE@XZ 1003a4ea f   PhysXCommon_32:PhysXCommon_32.dll
 0001:000394f0       __tailMerge_physxcommon_32_dll 1003a4f0     PhysXCommon_32:PhysXCommon_32.dll
 0001:00039501       __imp_load_??1RadixSortBuffered@Cm@physx@@UAE@XZ 1003a501 f   PhysXCommon_32:PhysXCommon_32.dll
 0001:0003950b       ??1RadixSortBuffered@Cm@physx@@UAE@XZ 1003a50b f   PhysXCommon_32:PhysXCommon_32.dll
 0001:00039511       __imp_load_?Sort@RadixSortBuffered@Cm@physx@@QAEAAV123@PBIIW4RadixHint@23@@Z 1003a511 f   PhysXCommon_32:PhysXCommon_32.dll
 0001:0003951b       ?Sort@RadixSortBuffered@Cm@physx@@QAEAAV123@PBIIW4RadixHint@23@@Z 1003a51b f   PhysXCommon_32:PhysXCommon_32.dll
 0001:00039521       __imp_load_?readDword@physx@@YAI_NAAVPxInputStream@1@@Z 1003a521 f   PhysXCommon_32:PhysXCommon_32.dll
 0001:0003952b       ?readDword@physx@@YAI_NAAVPxInputStream@1@@Z 1003a52b f   PhysXCommon_32:PhysXCommon_32.dll
 0001:00039531       __imp_load_?ReadHeader@Gu@physx@@YA_NEEEEAAIAA_NAAVPxInputStream@2@@Z 1003a531 f   PhysXCommon_32:PhysXCommon_32.dll
 0001:0003953b       ?ReadHeader@Gu@physx@@YA_NEEEEAAIAA_NAAVPxInputStream@2@@Z 1003a53b f   PhysXCommon_32:PhysXCommon_32.dll
 0001:00039541       __imp_load_?exportExtraData@ConvexMesh@Gu@physx@@UAEXAAVPxSerializationContext@3@@Z 1003a541 f   PhysXCommon_32:PhysXCommon_32.dll
 0001:0003954b       ?exportExtraData@ConvexMesh@Gu@physx@@UAEXAAVPxSerializationContext@3@@Z 1003a54b f   PhysXCommon_32:PhysXCommon_32.dll
 0001:00039551       __imp_load_?onRefCountZero@ConvexMesh@Gu@physx@@UAEXXZ 1003a551 f   PhysXCommon_32:PhysXCommon_32.dll
 0001:0003955b       ?onRefCountZero@ConvexMesh@Gu@physx@@UAEXXZ 1003a55b f   PhysXCommon_32:PhysXCommon_32.dll
 0001:00039561       __imp_load_?release@ConvexMesh@Gu@physx@@UAEXXZ 1003a561 f   PhysXCommon_32:PhysXCommon_32.dll
 0001:0003956b       ?release@ConvexMesh@Gu@physx@@UAEXXZ 1003a56b f   PhysXCommon_32:PhysXCommon_32.dll
 0001:00039571       __imp_load_?getPolygonData@ConvexMesh@Gu@physx@@UBE_NIAAUPxHullPolygon@3@@Z 1003a571 f   PhysXCommon_32:PhysXCommon_32.dll
 0001:0003957b       ?getPolygonData@ConvexMesh@Gu@physx@@UBE_NIAAUPxHullPolygon@3@@Z 1003a57b f   PhysXCommon_32:PhysXCommon_32.dll
 0001:00039581       __imp_load_?isGpuCompatible@ConvexMesh@Gu@physx@@UBE_NXZ 1003a581 f   PhysXCommon_32:PhysXCommon_32.dll
 0001:0003958b       ?isGpuCompatible@ConvexMesh@Gu@physx@@UBE_NXZ 1003a58b f   PhysXCommon_32:PhysXCommon_32.dll
 0001:00039591       __imp_load_?getReferenceCount@ConvexMesh@Gu@physx@@UBEIXZ 1003a591 f   PhysXCommon_32:PhysXCommon_32.dll
 0001:0003959b       ?getReferenceCount@ConvexMesh@Gu@physx@@UBEIXZ 1003a59b f   PhysXCommon_32:PhysXCommon_32.dll
 0001:000395a1       __imp_load_?acquireReference@ConvexMesh@Gu@physx@@UAEXXZ 1003a5a1 f   PhysXCommon_32:PhysXCommon_32.dll
 0001:000395ab       ?acquireReference@ConvexMesh@Gu@physx@@UAEXXZ 1003a5ab f   PhysXCommon_32:PhysXCommon_32.dll
 0001:000395b1       __imp_load_?getMassInformation@ConvexMesh@Gu@physx@@UBEXAAMAAVPxMat33@3@AAVPxVec3@3@@Z 1003a5b1 f   PhysXCommon_32:PhysXCommon_32.dll
 0001:000395bb       ?getMassInformation@ConvexMesh@Gu@physx@@UBEXAAMAAVPxMat33@3@AAVPxVec3@3@@Z 1003a5bb f   PhysXCommon_32:PhysXCommon_32.dll
 0001:000395c1       __imp_load_?getLocalBounds@ConvexMesh@Gu@physx@@UBE?AVPxBounds3@3@XZ 1003a5c1 f   PhysXCommon_32:PhysXCommon_32.dll
 0001:000395cb       ?getLocalBounds@ConvexMesh@Gu@physx@@UBE?AVPxBounds3@3@XZ 1003a5cb f   PhysXCommon_32:PhysXCommon_32.dll
 0001:000395d1       __imp_load_??1ConvexMesh@Gu@physx@@UAE@XZ 1003a5d1 f   PhysXCommon_32:PhysXCommon_32.dll
 0001:000395db       ??1ConvexMesh@Gu@physx@@UAE@XZ 1003a5db f   PhysXCommon_32:PhysXCommon_32.dll
 0001:000395e1       __imp_load_??0HeightField@Gu@physx@@QAE@PAVGuMeshFactory@2@@Z 1003a5e1 f   PhysXCommon_32:PhysXCommon_32.dll
 0001:000395eb       ??0HeightField@Gu@physx@@QAE@PAVGuMeshFactory@2@@Z 1003a5eb f   PhysXCommon_32:PhysXCommon_32.dll
 0001:000395f1       __imp_load_?loadFromDesc@HeightField@Gu@physx@@QAE_NABVPxHeightFieldDesc@3@@Z 1003a5f1 f   PhysXCommon_32:PhysXCommon_32.dll
 0001:000395fb       ?loadFromDesc@HeightField@Gu@physx@@QAE_NABVPxHeightFieldDesc@3@@Z 1003a5fb f   PhysXCommon_32:PhysXCommon_32.dll
 0001:00039601       __imp_load_?computeCellCoordinates@HeightField@Gu@physx@@QBEIMMAAM0@Z 1003a601 f   PhysXCommon_32:PhysXCommon_32.dll
 0001:0003960b       ?computeCellCoordinates@HeightField@Gu@physx@@QBEIMMAAM0@Z 1003a60b f   PhysXCommon_32:PhysXCommon_32.dll
 0001:00039611       __imp_load_?releaseMemory@HeightField@Gu@physx@@QAEXXZ 1003a611 f   PhysXCommon_32:PhysXCommon_32.dll
 0001:0003961b       ?releaseMemory@HeightField@Gu@physx@@QAEXXZ 1003a61b f   PhysXCommon_32:PhysXCommon_32.dll
 0001:00039621       __imp_load_??1HeightField@Gu@physx@@UAE@XZ 1003a621 f   PhysXCommon_32:PhysXCommon_32.dll
 0001:0003962b       ??1HeightField@Gu@physx@@UAE@XZ 1003a62b f   PhysXCommon_32:PhysXCommon_32.dll
 0001:00039631       __imp_load_??0NodeAllocator@Gu@physx@@QAE@XZ 1003a631 f   PhysXCommon_32:PhysXCommon_32.dll
 0001:0003963b       ??0NodeAllocator@Gu@physx@@QAE@XZ 1003a63b f   PhysXCommon_32:PhysXCommon_32.dll
 0001:00039641       __imp_load_??1NodeAllocator@Gu@physx@@QAE@XZ 1003a641 f   PhysXCommon_32:PhysXCommon_32.dll
 0001:0003964b       ??1NodeAllocator@Gu@physx@@QAE@XZ 1003a64b f   PhysXCommon_32:PhysXCommon_32.dll
 0001:00039651       __imp_load_?release@NodeAllocator@Gu@physx@@QAEXXZ 1003a651 f   PhysXCommon_32:PhysXCommon_32.dll
 0001:0003965b       ?release@NodeAllocator@Gu@physx@@QAEXXZ 1003a65b f   PhysXCommon_32:PhysXCommon_32.dll
 0001:00039661       __imp_load_?buildAABBTree@Gu@physx@@YA_NAAVAABBTreeBuildParams@12@AAVNodeAllocator@12@AAUBuildStats@12@AAPAI@Z 1003a661 f   PhysXCommon_32:PhysXCommon_32.dll
 0001:0003966b       ?buildAABBTree@Gu@physx@@YA_NAAVAABBTreeBuildParams@12@AAVNodeAllocator@12@AAUBuildStats@12@AAPAI@Z 1003a66b f   PhysXCommon_32:PhysXCommon_32.dll
 0001:00039671       __imp_load_?writeDword@physx@@YAXI_NAAVPxOutputStream@1@@Z 1003a671 f   PhysXCommon_32:PhysXCommon_32.dll
 0001:0003967b       ?writeDword@physx@@YAXI_NAAVPxOutputStream@1@@Z 1003a67b f   PhysXCommon_32:PhysXCommon_32.dll
 0001:00039681       __imp_load_?writeFloatBuffer@physx@@YAXPBMI_NAAVPxOutputStream@1@@Z 1003a681 f   PhysXCommon_32:PhysXCommon_32.dll
 0001:0003968b       ?writeFloatBuffer@physx@@YAXPBMI_NAAVPxOutputStream@1@@Z 1003a68b f   PhysXCommon_32:PhysXCommon_32.dll
 0001:00039691       __imp_load_?writeHeader@physx@@YA_NCCCCI_NAAVPxOutputStream@1@@Z 1003a691 f   PhysXCommon_32:PhysXCommon_32.dll
 0001:0003969b       ?writeHeader@physx@@YA_NCCCCI_NAAVPxOutputStream@1@@Z 1003a69b f   PhysXCommon_32:PhysXCommon_32.dll
 0001:000396a1       __imp_load_?writeWord@physx@@YAXG_NAAVPxOutputStream@1@@Z 1003a6a1 f   PhysXCommon_32:PhysXCommon_32.dll
 0001:000396ab       ?writeWord@physx@@YAXG_NAAVPxOutputStream@1@@Z 1003a6ab f   PhysXCommon_32:PhysXCommon_32.dll
 0001:000396b1       __imp_load_?writeFloat@physx@@YAXM_NAAVPxOutputStream@1@@Z 1003a6b1 f   PhysXCommon_32:PhysXCommon_32.dll
 0001:000396bb       ?writeFloat@physx@@YAXM_NAAVPxOutputStream@1@@Z 1003a6bb f   PhysXCommon_32:PhysXCommon_32.dll
 0001:000396c1       __imp_load_?validate@RTree@Gu@physx@@QAEXPAUCallbackRefit@123@@Z 1003a6c1 f   PhysXCommon_32:PhysXCommon_32.dll
 0001:000396cb       ?validate@RTree@Gu@physx@@QAEXPAUCallbackRefit@123@@Z 1003a6cb f   PhysXCommon_32:PhysXCommon_32.dll
 0001:000396d1       __imp_load_?computeBoundsAroundVertices@Gu@physx@@YAXAAVPxBounds3@2@IPIBVPxVec3@2@@Z 1003a6d1 f   PhysXCommon_32:PhysXCommon_32.dll
 0001:000396db       ?computeBoundsAroundVertices@Gu@physx@@YAXAAVPxBounds3@2@IPIBVPxVec3@2@@Z 1003a6db f   PhysXCommon_32:PhysXCommon_32.dll
 0001:000396e1       __imp_load_??0SourceMesh@Gu@physx@@QAE@XZ 1003a6e1 f   PhysXCommon_32:PhysXCommon_32.dll
 0001:000396eb       ??0SourceMesh@Gu@physx@@QAE@XZ 1003a6eb f   PhysXCommon_32:PhysXCommon_32.dll
 0001:000396f1       __imp_load_??1SourceMesh@Gu@physx@@QAE@XZ 1003a6f1 f   PhysXCommon_32:PhysXCommon_32.dll
 0001:000396fb       ??1SourceMesh@Gu@physx@@QAE@XZ 1003a6fb f   PhysXCommon_32:PhysXCommon_32.dll
 0001:00039701       __imp_load_??0BV4Tree@Gu@physx@@QAE@XZ 1003a701 f   PhysXCommon_32:PhysXCommon_32.dll
 0001:0003970b       ??0BV4Tree@Gu@physx@@QAE@XZ 1003a70b f   PhysXCommon_32:PhysXCommon_32.dll
 0001:00039711       __imp_load_??1BV4Tree@Gu@physx@@QAE@XZ 1003a711 f   PhysXCommon_32:PhysXCommon_32.dll
 0001:0003971b       ??1BV4Tree@Gu@physx@@QAE@XZ 1003a71b f   PhysXCommon_32:PhysXCommon_32.dll
 0001:00039721       __imp_load_??0BV32Tree@Gu@physx@@QAE@XZ 1003a721 f   PhysXCommon_32:PhysXCommon_32.dll
 0001:0003972b       ??0BV32Tree@Gu@physx@@QAE@XZ 1003a72b f   PhysXCommon_32:PhysXCommon_32.dll
 0001:00039731       __imp_load_??1BV32Tree@Gu@physx@@QAE@XZ 1003a731 f   PhysXCommon_32:PhysXCommon_32.dll
 0001:0003973b       ??1BV32Tree@Gu@physx@@QAE@XZ 1003a73b f   PhysXCommon_32:PhysXCommon_32.dll
 0001:00039741       __imp_load_?writeWordBuffer@physx@@YAXPBGI_NAAVPxOutputStream@1@@Z 1003a741 f   PhysXCommon_32:PhysXCommon_32.dll
 0001:0003974b       ?writeWordBuffer@physx@@YAXPBGI_NAAVPxOutputStream@1@@Z 1003a74b f   PhysXCommon_32:PhysXCommon_32.dll
 0001:00039751       __imp_load_?computeMaxIndex@physx@@YAIPBII@Z 1003a751 f   PhysXCommon_32:PhysXCommon_32.dll
 0001:0003975b       ?computeMaxIndex@physx@@YAIPBII@Z 1003a75b f   PhysXCommon_32:PhysXCommon_32.dll
 0001:00039761       __imp_load_?storeIndices@physx@@YAXIIPBIAAVPxOutputStream@1@_N@Z 1003a761 f   PhysXCommon_32:PhysXCommon_32.dll
 0001:0003976b       ?storeIndices@physx@@YAXIIPBIAAVPxOutputStream@1@_N@Z 1003a76b f   PhysXCommon_32:PhysXCommon_32.dll
 0001:00039771       __imp_load_?BuildBV4Ex@Gu@physx@@YA_NAAVBV4Tree@12@AAVSourceMesh@12@MI@Z 1003a771 f   PhysXCommon_32:PhysXCommon_32.dll
 0001:0003977b       ?BuildBV4Ex@Gu@physx@@YA_NAAVBV4Tree@12@AAVSourceMesh@12@MI@Z 1003a77b f   PhysXCommon_32:PhysXCommon_32.dll
 0001:00039781       __imp_load_?BuildBV32Ex@Gu@physx@@YA_NAAVBV32Tree@12@AAVSourceMesh@12@MI@Z 1003a781 f   PhysXCommon_32:PhysXCommon_32.dll
 0001:0003978b       ?BuildBV32Ex@Gu@physx@@YA_NAAVBV32Tree@12@AAVSourceMesh@12@MI@Z 1003a78b f   PhysXCommon_32:PhysXCommon_32.dll
 0001:00039791       __imp_load_?computeMaxIndex@physx@@YAGPBGI@Z 1003a791 f   PhysXCommon_32:PhysXCommon_32.dll
 0001:0003979b       ?computeMaxIndex@physx@@YAGPBGI@Z 1003a79b f   PhysXCommon_32:PhysXCommon_32.dll
 0001:000397a1       __imp_load_?WriteHeader@Gu@physx@@YA_NEEEEI_NAAVPxOutputStream@2@@Z 1003a7a1 f   PhysXCommon_32:PhysXCommon_32.dll
 0001:000397ab       ?WriteHeader@Gu@physx@@YA_NEEEEI_NAAVPxOutputStream@2@@Z 1003a7ab f   PhysXCommon_32:PhysXCommon_32.dll
 0001:000397b1       __imp_load_?StoreIndices@Gu@physx@@YAXGIPBGAAVPxOutputStream@2@_N@Z 1003a7b1 f   PhysXCommon_32:PhysXCommon_32.dll
 0001:000397bb       ?StoreIndices@Gu@physx@@YAXGIPBGAAVPxOutputStream@2@_N@Z 1003a7bb f   PhysXCommon_32:PhysXCommon_32.dll
 0001:000397c1       __imp_load_?CreateOffsets@BigConvexData@physx@@IAEXXZ 1003a7c1 f   PhysXCommon_32:PhysXCommon_32.dll
 0001:000397cb       ?CreateOffsets@BigConvexData@physx@@IAEXXZ 1003a7cb f   PhysXCommon_32:PhysXCommon_32.dll
 0001:000397d1       __imp_load_?computeOBBPoints@Gu@physx@@YAXPIAVPxVec3@2@ABV32@1111@Z 1003a7d1 f   PhysXCommon_32:PhysXCommon_32.dll
 0001:000397db       ?computeOBBPoints@Gu@physx@@YAXPIAVPxVec3@2@ABV32@1111@Z 1003a7db f   PhysXCommon_32:PhysXCommon_32.dll
 0001:000397e1       __imp_load_??0BigConvexData@physx@@QAE@XZ 1003a7e1 f   PhysXCommon_32:PhysXCommon_32.dll
 0001:000397eb       ??0BigConvexData@physx@@QAE@XZ 1003a7eb f   PhysXCommon_32:PhysXCommon_32.dll
 0001:000397f1       __imp_load_??1BigConvexData@physx@@QAE@XZ 1003a7f1 f   PhysXCommon_32:PhysXCommon_32.dll
 0001:000397fb       ??1BigConvexData@physx@@QAE@XZ 1003a7fb f   PhysXCommon_32:PhysXCommon_32.dll
 0001:00039801       __imp_load_?PxGetAssertHandler@physx@@YAAAVPxAssertHandler@1@XZ 1003a801 f   PhysXFoundation_32:PhysXFoundation_32.dll
 0001:0003980b       ?PxGetAssertHandler@physx@@YAAAVPxAssertHandler@1@XZ 1003a80b f   PhysXFoundation_32:PhysXFoundation_32.dll
 0001:00039811       __tailMerge_physxfoundation_32_dll 1003a811     PhysXFoundation_32:PhysXFoundation_32.dll
 0001:00039822       __imp_load__PxGetFoundation 1003a822 f   PhysXFoundation_32:PhysXFoundation_32.dll
 0001:0003982c       _PxGetFoundation           1003a82c f   PhysXFoundation_32:PhysXFoundation_32.dll
 0001:00039832       __imp_load_?getAllocator@shdfnd@physx@@YAAAVPxAllocatorCallback@2@XZ 1003a832 f   PhysXFoundation_32:PhysXFoundation_32.dll
 0001:0003983c       ?getAllocator@shdfnd@physx@@YAAAVPxAllocatorCallback@2@XZ 1003a83c f   PhysXFoundation_32:PhysXFoundation_32.dll
 0001:00039842       __imp_load_??0NamedAllocator@shdfnd@physx@@QAE@PBD@Z 1003a842 f   PhysXFoundation_32:PhysXFoundation_32.dll
 0001:0003984c       ??0NamedAllocator@shdfnd@physx@@QAE@PBD@Z 1003a84c f   PhysXFoundation_32:PhysXFoundation_32.dll
 0001:00039852       __imp_load_?getInstance@Foundation@shdfnd@physx@@SAAAV123@XZ 1003a852 f   PhysXFoundation_32:PhysXFoundation_32.dll
 0001:0003985c       ?getInstance@Foundation@shdfnd@physx@@SAAAV123@XZ 1003a85c f   PhysXFoundation_32:PhysXFoundation_32.dll
 0001:00039862       __imp_load_?error@Foundation@shdfnd@physx@@QAAXW4Enum@PxErrorCode@3@PBDH1ZZ 1003a862 f   PhysXFoundation_32:PhysXFoundation_32.dll
 0001:0003986c       ?error@Foundation@shdfnd@physx@@QAAXW4Enum@PxErrorCode@3@PBDH1ZZ 1003a86c f   PhysXFoundation_32:PhysXFoundation_32.dll
 0001:00039872       __imp_load_?allocate@NamedAllocator@shdfnd@physx@@QAEPAXIPBDH@Z 1003a872 f   PhysXFoundation_32:PhysXFoundation_32.dll
 0001:0003987c       ?allocate@NamedAllocator@shdfnd@physx@@QAEPAXIPBDH@Z 1003a87c f   PhysXFoundation_32:PhysXFoundation_32.dll
 0001:00039882       __imp_load_?deallocate@NamedAllocator@shdfnd@physx@@QAEXPAX@Z 1003a882 f   PhysXFoundation_32:PhysXFoundation_32.dll
 0001:0003988c       ?deallocate@NamedAllocator@shdfnd@physx@@QAEXPAX@Z 1003a88c f   PhysXFoundation_32:PhysXFoundation_32.dll
 0001:00039892       __imp_load_?incRefCount@Foundation@shdfnd@physx@@SAXXZ 1003a892 f   PhysXFoundation_32:PhysXFoundation_32.dll
 0001:0003989c       ?incRefCount@Foundation@shdfnd@physx@@SAXXZ 1003a89c f   PhysXFoundation_32:PhysXFoundation_32.dll
 0001:000398a2       __imp_load_?decRefCount@Foundation@shdfnd@physx@@SAXXZ 1003a8a2 f   PhysXFoundation_32:PhysXFoundation_32.dll
 0001:000398ac       ?decRefCount@Foundation@shdfnd@physx@@SAXXZ 1003a8ac f   PhysXFoundation_32:PhysXFoundation_32.dll
 0001:000398b2       __imp_load_??0FPUGuard@shdfnd@physx@@QAE@XZ 1003a8b2 f   PhysXFoundation_32:PhysXFoundation_32.dll
 0001:000398bc       ??0FPUGuard@shdfnd@physx@@QAE@XZ 1003a8bc f   PhysXFoundation_32:PhysXFoundation_32.dll
 0001:000398c2       __imp_load_??1FPUGuard@shdfnd@physx@@QAE@XZ 1003a8c2 f   PhysXFoundation_32:PhysXFoundation_32.dll
 0001:000398cc       ??1FPUGuard@shdfnd@physx@@QAE@XZ 1003a8cc f   PhysXFoundation_32:PhysXFoundation_32.dll
 0001:000398d2       __imp_load_??1NamedAllocator@shdfnd@physx@@QAE@XZ 1003a8d2 f   PhysXFoundation_32:PhysXFoundation_32.dll
 0001:000398dc       ??1NamedAllocator@shdfnd@physx@@QAE@XZ 1003a8dc f   PhysXFoundation_32:PhysXFoundation_32.dll
 0001:000398e2       __imp_load_??0NamedAllocator@shdfnd@physx@@QAE@ABV012@@Z 1003a8e2 f   PhysXFoundation_32:PhysXFoundation_32.dll
 0001:000398ec       ??0NamedAllocator@shdfnd@physx@@QAE@ABV012@@Z 1003a8ec f   PhysXFoundation_32:PhysXFoundation_32.dll
 0001:000398f2       __imp_load_?allocate@TempAllocator@shdfnd@physx@@QAEPAXIPBDH@Z 1003a8f2 f   PhysXFoundation_32:PhysXFoundation_32.dll
 0001:000398fc       ?allocate@TempAllocator@shdfnd@physx@@QAEPAXIPBDH@Z 1003a8fc f   PhysXFoundation_32:PhysXFoundation_32.dll
 0001:00039902       __imp_load_?deallocate@TempAllocator@shdfnd@physx@@QAEXPAX@Z 1003a902 f   PhysXFoundation_32:PhysXFoundation_32.dll
 0001:0003990c       ?deallocate@TempAllocator@shdfnd@physx@@QAEXPAX@Z 1003a90c f   PhysXFoundation_32:PhysXFoundation_32.dll
 0001:00039912       __imp_load_?PxDiagonalize@physx@@YA?AVPxVec3@1@ABVPxMat33@1@AAVPxQuat@1@@Z 1003a912 f   PhysXFoundation_32:PhysXFoundation_32.dll
 0001:0003991c       ?PxDiagonalize@physx@@YA?AVPxVec3@1@ABVPxMat33@1@AAVPxQuat@1@@Z 1003a91c f   PhysXFoundation_32:PhysXFoundation_32.dll
 0001:00039922       _LoadLibraryA@4            1003a922 f   kernel32:KERNEL32.dll
 0001:00039928       ??$PFromRva@PAP6GHXZ@@YGPAP6GHXZK@Z 1003a928 f i Delayimp:delayhlp.obj
 0001:0003993a       ??$PFromRva@PAPAUHINSTANCE__@@@@YGPAPAUHINSTANCE__@@K@Z 1003a93a f i Delayimp:delayhlp.obj
 0001:0003994c       ??$PFromRva@PAU_IMAGE_IMPORT_BY_NAME@@@@YGPAU_IMAGE_IMPORT_BY_NAME@@K@Z 1003a94c f i Delayimp:delayhlp.obj
 0001:0003995e       ??$PFromRva@PAU_IMAGE_THUNK_DATA32@@@@YGPAU_IMAGE_THUNK_DATA32@@K@Z 1003a95e f i Delayimp:delayhlp.obj
 0001:00039970       ??$PFromRva@PBD@@YGPBDK@Z  1003a970 f i Delayimp:delayhlp.obj
 0001:00039982       ??$PFromRva@PBUImgDelayDescr@@@@YGPBUImgDelayDescr@@K@Z 1003a982 f i Delayimp:delayhlp.obj
 0001:00039994       ??$PFromRva@PBU_IMAGE_THUNK_DATA32@@@@YGPBU_IMAGE_THUNK_DATA32@@K@Z 1003a994 f i Delayimp:delayhlp.obj
 0001:000399a6       ?CountOfImports@@YGIPBU_IMAGE_THUNK_DATA32@@@Z 1003a9a6 f i Delayimp:delayhlp.obj
 0001:000399c1       ?DloadAcquireSectionWriteAccess@@YGXXZ 1003a9c1 f i Delayimp:delayhlp.obj
 0001:000399f4       ?DloadGetSRWLockFunctionPointers@@YGEXZ 1003a9f4 f i Delayimp:delayhlp.obj
 0001:00039a67       ?DloadLock@@YGXXZ          1003aa67 f i Delayimp:delayhlp.obj
 0001:00039aa6       ?DloadMakePermanentImageCommit@@YGXPAXK@Z 1003aaa6 f i Delayimp:delayhlp.obj
 0001:00039b15       ?DloadObtainSection@@YGPAXPAK0@Z 1003ab15 f i Delayimp:delayhlp.obj
 0001:00039b90       ?DloadProtectSection@@YGXKPAK@Z 1003ab90 f i Delayimp:delayhlp.obj
 0001:00039bfe       ?DloadReleaseSectionWriteAccess@@YGXXZ 1003abfe f i Delayimp:delayhlp.obj
 0001:00039c34       ?DloadUnlock@@YGXXZ        1003ac34 f i Delayimp:delayhlp.obj
 0001:00039c75       ?IndexFromPImgThunkData@@YGIPBU_IMAGE_THUNK_DATA32@@0@Z 1003ac75 f i Delayimp:delayhlp.obj
 0001:00039dd5       _HRESULT_FROM_WIN32@4      1003add5 f i Delayimp:delayhlp.obj
 0001:00039ded       _ReadAcquire@4             1003aded f i Delayimp:delayhlp.obj
 0001:00039dfb       _ReadPointerAcquire@4      1003adfb f i Delayimp:delayhlp.obj
 0001:00039e09       _WritePointerRelease@8     1003ae09 f i Delayimp:delayhlp.obj
 0001:00039e1a       _WriteRelease@8            1003ae1a f i Delayimp:delayhlp.obj
 0001:00039e2b       __InlineInterlockedCompareExchangePointer@12 1003ae2b f i Delayimp:delayhlp.obj
 0001:00039e41       ___FUnloadDelayLoadedDLL2@4 1003ae41 f   Delayimp:delayhlp.obj
 0001:00039ec5       ___HrLoadAllImportsForDll@4 1003aec5 f   Delayimp:delayhlp.obj
 0001:00039f26       ___delayLoadHelper2@8      1003af26 f   Delayimp:delayhlp.obj
 0001:0003a1a0       ??3@YAXPAXI@Z              1003b1a0 f   MSVCRTD:delete_scalar_size.obj
 0001:0003a1c0       ??_V@YAXPAXI@Z             1003b1c0 f   MSVCRTD:delete_array_size.obj
 0001:0003a1e0       __CRT_RTC_INIT             1003b1e0 f   MSVCRTD:init.obj
 0001:0003a1f0       __CRT_RTC_INITW            1003b1f0 f   MSVCRTD:init.obj
 0001:0003a200       __RTC_InitBase             1003b200 f   MSVCRTD:init.obj
 0001:0003a230       __RTC_Shutdown             1003b230 f   MSVCRTD:init.obj
 0001:0003a250       ?__scrt_initialize_type_info@@YAXXZ 1003b250 f   MSVCRTD:tncleanup.obj
 0001:0003a260       ?__scrt_uninitialize_type_info@@YAXXZ 1003b260 f   MSVCRTD:tncleanup.obj
 0001:0003a280       ??1type_info@@UAE@XZ       1003b280 f   MSVCRTD:std_type_info_static.obj
 0001:0003a2a0       ??_Etype_info@@UAEPAXI@Z   1003b2a0 f i MSVCRTD:std_type_info_static.obj
 0001:0003a2a0       ??_Gtype_info@@UAEPAXI@Z   1003b2a0 f i MSVCRTD:std_type_info_static.obj
 0001:0003a2d0       __alloca_probe_16          1003b2d0 f   MSVCRTD:alloca16.obj
 0001:0003a2e6       __alloca_probe_8           1003b2e6     MSVCRTD:alloca16.obj
 0001:0003a300       ??3@YAXPAX@Z               1003b300 f   MSVCRTD:delete_scalar.obj
 0001:0003a320       ??_V@YAXPAX@Z              1003b320 f   MSVCRTD:delete_array.obj
 0001:0003a340       __alloca_probe             1003b340 f   MSVCRTD:chkstk.obj
 0001:0003a340       __chkstk                   1003b340 f   MSVCRTD:chkstk.obj
 0001:0003a370       __ftoui3                   1003b370 f   MSVCRTD:ftol3.obj
 0001:0003a3a6       __ftoul3                   1003b3a6 f   MSVCRTD:ftol3.obj
 0001:0003a3f5       __ftol3                    1003b3f5 f   MSVCRTD:ftol3.obj
 0001:0003a43f       __dtoui3                   1003b43f f   MSVCRTD:ftol3.obj
 0001:0003a4a3       __dtoul3                   1003b4a3 f   MSVCRTD:ftol3.obj
 0001:0003a527       __dtol3                    1003b527 f   MSVCRTD:ftol3.obj
 0001:0003a5c0       __ultod3                   1003b5c0 f   MSVCRTD:ftol3.obj
 0001:0003a600       __ltod3                    1003b600 f   MSVCRTD:ftol3.obj
 0001:0003aae0       __CRT_INIT@12              1003bae0 f   MSVCRTD:dll_dllmain.obj
 0001:0003ab00       __DllMainCRTStartup@12     1003bb00 f   MSVCRTD:dll_dllmain.obj
 0001:0003ab30       @_guard_check_icall_nop@4  1003bb30 f i MSVCRTD:guard_support.obj
 0001:0003ab40       _ReadNoFence               1003bb40 f i MSVCRTD:guard_support.obj
 0001:0003ab60       _ReadPointerNoFence        1003bb60 f i MSVCRTD:guard_support.obj
 0001:0003ab80       __guard_icall_checks_enforced 1003bb80 f i MSVCRTD:guard_support.obj
 0001:0003abb0       ?_RTC_GetErrorFunc@@YAP6AHHPBDH00ZZPBX@Z 1003bbb0 f   MSVCRTD:userapi.obj
 0001:0003abc0       ?_RTC_GetErrorFuncW@@YAP6AHHPB_WH00ZZPBX@Z 1003bbc0 f   MSVCRTD:userapi.obj
 0001:0003abd0       __RTC_GetErrDesc           1003bbd0 f   MSVCRTD:userapi.obj
 0001:0003abf0       __RTC_NumErrors            1003bbf0 f   MSVCRTD:userapi.obj
 0001:0003ac00       __RTC_SetErrorFunc         1003bc00 f   MSVCRTD:userapi.obj
 0001:0003ac20       __RTC_SetErrorFuncW        1003bc20 f   MSVCRTD:userapi.obj
 0001:0003ac40       __RTC_SetErrorType         1003bc40 f   MSVCRTD:userapi.obj
 0001:0003ace0       ___security_init_cookie    1003bce0 f   MSVCRTD:gs_support.obj
 0001:0003ad60       _DllMain@12                1003bd60 f   MSVCRTD:dll_dllmain_stub.obj
 0001:0003ad90       ___local_stdio_printf_options 1003bd90 f i MSVCRTD:default_local_stdio_options.obj
 0001:0003ada0       ___local_stdio_scanf_options 1003bda0 f i MSVCRTD:default_local_stdio_options.obj
 0001:0003adb0       ___scrt_initialize_default_local_stdio_options 1003bdb0 f   MSVCRTD:default_local_stdio_options.obj
 0001:0003adf0       ?configure_argv@__scrt_narrow_argv_policy@@SAHXZ 1003bdf0 f i MSVCRTD:utility.obj
 0001:0003aea0       ?initialize_environment@__scrt_narrow_environment_policy@@SAHXZ 1003bea0 f i MSVCRTD:utility.obj
 0001:0003af20       _NtCurrentTeb              1003bf20 f i MSVCRTD:utility.obj
 0001:0003af30       ___scrt_acquire_startup_lock 1003bf30 f   MSVCRTD:utility.obj
 0001:0003af80       ___scrt_dllmain_after_initialize_c 1003bf80 f   MSVCRTD:utility.obj
 0001:0003afb0       ___scrt_dllmain_before_initialize_c 1003bfb0 f   MSVCRTD:utility.obj
 0001:0003afd0       ___scrt_dllmain_crt_thread_attach 1003bfd0 f   MSVCRTD:utility.obj
 0001:0003b000       ___scrt_dllmain_crt_thread_detach 1003c000 f   MSVCRTD:utility.obj
 0001:0003b020       ___scrt_dllmain_exception_filter 1003c020 f   MSVCRTD:utility.obj
 0001:0003b070       ___scrt_dllmain_uninitialize_c 1003c070 f   MSVCRTD:utility.obj
 0001:0003b0a0       ___scrt_dllmain_uninitialize_critical 1003c0a0 f   MSVCRTD:utility.obj
 0001:0003b0c0       ___scrt_initialize_crt     1003c0c0 f   MSVCRTD:utility.obj
 0001:0003b110       ___scrt_initialize_onexit_tables 1003c110 f   MSVCRTD:utility.obj
 0001:0003b1f0       ___scrt_is_nonwritable_in_current_image 1003c1f0 f   MSVCRTD:utility.obj
 0001:0003b320       ___scrt_release_startup_lock 1003c320 f   MSVCRTD:utility.obj
 0001:0003b350       ___scrt_uninitialize_crt   1003c350 f   MSVCRTD:utility.obj
 0001:0003b390       __onexit                   1003c390 f   MSVCRTD:utility.obj
 0001:0003b400       _at_quick_exit             1003c400 f   MSVCRTD:utility.obj
 0001:0003b440       _atexit                    1003c440 f   MSVCRTD:utility.obj
 0001:0003b470       ___scrt_get_dyn_tls_init_callback 1003c470 f   MSVCRTD:dyn_tls_init.obj
 0001:0003b480       ___scrt_fastfail           1003c480 f   MSVCRTD:utility_desktop.obj
 0001:0003b5c0       ___scrt_get_show_window_mode 1003c5c0 f   MSVCRTD:utility_desktop.obj
 0001:0003b600       ___scrt_initialize_mta     1003c600 f   MSVCRTD:utility_desktop.obj
 0001:0003b610       ___scrt_initialize_winrt   1003c610 f   MSVCRTD:utility_desktop.obj
 0001:0003b620       ___scrt_is_managed_app     1003c620 f   MSVCRTD:utility_desktop.obj
 0001:0003b6b0       ___scrt_set_unhandled_exception_filter 1003c6b0 f   MSVCRTD:utility_desktop.obj
 0001:0003b6c0       ___scrt_stub_for_initialize_mta 1003c6c0 f   MSVCRTD:utility_desktop.obj
 0001:0003b6c0       ___scrt_exe_initialize_mta 1003c6c0 f   MSVCRTD:utility_desktop.obj
 0001:0003b6d0       ___scrt_unhandled_exception_filter@4 1003c6d0 f   MSVCRTD:utility_desktop.obj
 0001:0003b730       __crt_debugger_hook        1003c730 f   MSVCRTD:utility_desktop.obj
 0001:0003b740       __RTC_Initialize           1003c740 f   MSVCRTD:initsect.obj
 0001:0003b770       __RTC_Terminate            1003c770 f   MSVCRTD:initsect.obj
 0001:0003b7a0       __except_handler4          1003c7a0 f   MSVCRTD:chandler4gs.obj
 0001:0003b870       ?_RTC_AllocaFailure@@YAXPAXPAU_RTC_ALLOCA_NODE@@H@Z 1003c870 f   MSVCRTD:error.obj
 0001:0003b960       ?_RTC_Failure@@YAXPAXH@Z   1003c960 f   MSVCRTD:error.obj
 0001:0003b9b0       ?_RTC_StackFailure@@YAXPAXPBD@Z 1003c9b0 f   MSVCRTD:error.obj
 0001:0003bd70       __RTC_UninitUse            1003cd70 f   MSVCRTD:error.obj
 0001:0003be20       __vsprintf_s_l             1003ce20 f i MSVCRTD:error.obj
 0001:0003be50       _sprintf_s                 1003ce50 f i MSVCRTD:error.obj
 0001:0003be70       ___isa_available_init      1003ce70 f   MSVCRTD:cpu_disp.obj
 0001:0003c150       __get_startup_argv_mode    1003d150 f   MSVCRTD:argv_mode.obj
 0001:0003c160       ___scrt_is_ucrt_dll_in_use 1003d160 f   MSVCRTD:ucrt_detection.obj
 0001:0003c190       @__security_check_cookie@4 1003d190 f   MSVCRTD:secchk.obj
 0001:0003c630       ?_RTC_GetSrcLine@@YAHPAEPA_WKPAH1K@Z 1003d630 f   MSVCRTD:pdblkup.obj
 0001:0003c9c0       __except_handler4_noexcept 1003d9c0 f   MSVCRTD:chandler4_noexcept.obj
 0001:0003ca10       ___raise_securityfailure   1003da10 f   MSVCRTD:gs_report.obj
 0001:0003ca40       ___report_gsfailure        1003da40 f   MSVCRTD:gs_report.obj
 0001:0003cb50       ___report_rangecheckfailure 1003db50 f   MSVCRTD:gs_report.obj
 0001:0003cb60       ___report_securityfailure  1003db60 f   MSVCRTD:gs_report.obj
 0001:0003cc40       ___report_securityfailureEx 1003dc40 f   MSVCRTD:gs_report.obj
 0001:0003cd65       __purecall                 1003dd65 f   vcruntimed:VCRUNTIME140D.dll
 0001:0003cd6b       _memset                    1003dd6b f   vcruntimed:VCRUNTIME140D.dll
 0001:0003cd71       ___std_type_info_name      1003dd71 f   vcruntimed:VCRUNTIME140D.dll
 0001:0003cd77       _memcpy                    1003dd77 f   vcruntimed:VCRUNTIME140D.dll
 0001:0003cd7d       _strstr                    1003dd7d f   vcruntimed:VCRUNTIME140D.dll
 0001:0003cd83       ___std_type_info_destroy_list 1003dd83 f   vcruntimed:VCRUNTIME140D.dll
 0001:0003cd89       __except_handler4_common   1003dd89 f   vcruntimed:VCRUNTIME140D.dll
 0001:0003cd8f       ___vcrt_GetModuleFileNameW 1003dd8f f   vcruntimed:VCRUNTIME140D.dll
 0001:0003cd95       ___vcrt_GetModuleHandleW   1003dd95 f   vcruntimed:VCRUNTIME140D.dll
 0001:0003cd9b       ___vcrt_LoadLibraryExW     1003dd9b f   vcruntimed:VCRUNTIME140D.dll
 0001:0003cda1       _strcmp                    1003dda1 f   ucrtd:ucrtbased.dll
 0001:0003cda7       _atan2                     1003dda7 f   ucrtd:ucrtbased.dll
 0001:0003cdad       _fabs                      1003ddad f   ucrtd:ucrtbased.dll
 0001:0003cdb3       _sqrt                      1003ddb3 f   ucrtd:ucrtbased.dll
 0001:0003cdb9       _floor                     1003ddb9 f   ucrtd:ucrtbased.dll
 0001:0003cdbf       __fpclass                  1003ddbf f   ucrtd:ucrtbased.dll
 0001:0003cdc5       __wassert                  1003ddc5 f   ucrtd:ucrtbased.dll
 0001:0003cdcb       _abs                       1003ddcb f   ucrtd:ucrtbased.dll
 0001:0003cdd1       _pow                       1003ddd1 f   ucrtd:ucrtbased.dll
 0001:0003cdd7       _cos                       1003ddd7 f   ucrtd:ucrtbased.dll
 0001:0003cddd       _sin                       1003dddd f   ucrtd:ucrtbased.dll
 0001:0003cde3       __CrtDbgReport             1003dde3 f   ucrtd:ucrtbased.dll
 0001:0003cde9       __CrtDbgReportW            1003dde9 f   ucrtd:ucrtbased.dll
 0001:0003cdef       __free_dbg                 1003ddef f   ucrtd:ucrtbased.dll
 0001:0003cdf5       __except1                  1003ddf5 f   ucrtd:ucrtbased.dll
 0001:0003cdfb       __initterm                 1003ddfb f   ucrtd:ucrtbased.dll
 0001:0003ce01       __initterm_e               1003de01 f   ucrtd:ucrtbased.dll
 0001:0003ce07       __seh_filter_dll           1003de07 f   ucrtd:ucrtbased.dll
 0001:0003ce0d       __configure_narrow_argv    1003de0d f   ucrtd:ucrtbased.dll
 0001:0003ce13       __initialize_narrow_environment 1003de13 f   ucrtd:ucrtbased.dll
 0001:0003ce19       __initialize_onexit_table  1003de19 f   ucrtd:ucrtbased.dll
 0001:0003ce1f       __register_onexit_function 1003de1f f   ucrtd:ucrtbased.dll
 0001:0003ce25       __execute_onexit_table     1003de25 f   ucrtd:ucrtbased.dll
 0001:0003ce2b       __crt_atexit               1003de2b f   ucrtd:ucrtbased.dll
 0001:0003ce31       __crt_at_quick_exit        1003de31 f   ucrtd:ucrtbased.dll
 0001:0003ce37       __cexit                    1003de37 f   ucrtd:ucrtbased.dll
 0001:0003ce3d       _terminate                 1003de3d f   ucrtd:ucrtbased.dll
 0001:0003ce43       _strcpy_s                  1003de43 f   ucrtd:ucrtbased.dll
 0001:0003ce49       _strcat_s                  1003de49 f   ucrtd:ucrtbased.dll
 0001:0003ce4f       ___stdio_common_vsprintf_s 1003de4f f   ucrtd:ucrtbased.dll
 0001:0003ce55       __wmakepath_s              1003de55 f   ucrtd:ucrtbased.dll
 0001:0003ce5b       __wsplitpath_s             1003de5b f   ucrtd:ucrtbased.dll
 0001:0003ce61       _wcscpy_s                  1003de61 f   ucrtd:ucrtbased.dll
 0001:0003ce67       _RaiseException@16         1003de67 f   kernel32:KERNEL32.dll
 0001:0003ce6d       _GetLastError@0            1003de6d f   kernel32:KERNEL32.dll
 0001:0003ce73       _GetSystemInfo@4           1003de73 f   kernel32:KERNEL32.dll
 0001:0003ce79       _VirtualProtect@16         1003de79 f   kernel32:KERNEL32.dll
 0001:0003ce7f       _VirtualQuery@12           1003de7f f   kernel32:KERNEL32.dll
 0001:0003ce85       _FreeLibrary@4             1003de85 f   kernel32:KERNEL32.dll
 0001:0003ce8b       _GetModuleHandleW@4        1003de8b f   kernel32:KERNEL32.dll
 0001:0003ce91       _GetProcAddress@8          1003de91 f   kernel32:KERNEL32.dll
 0001:0003ce97       _LoadLibraryExA@12         1003de97 f   kernel32:KERNEL32.dll
 0001:0003ce9d       _InitializeSListHead@4     1003de9d f   kernel32:KERNEL32.dll
 0001:0003cea3       _QueryPerformanceCounter@4 1003dea3 f   kernel32:KERNEL32.dll
 0001:0003cea9       _GetCurrentProcessId@0     1003dea9 f   kernel32:KERNEL32.dll
 0001:0003ceaf       _GetCurrentThreadId@0      1003deaf f   kernel32:KERNEL32.dll
 0001:0003ceb5       _GetSystemTimeAsFileTime@4 1003deb5 f   kernel32:KERNEL32.dll
 0001:0003cebb       _DisableThreadLibraryCalls@4 1003debb f   kernel32:KERNEL32.dll
 0001:0003cec1       _IsDebuggerPresent@0       1003dec1 f   kernel32:KERNEL32.dll
 0001:0003cec7       _UnhandledExceptionFilter@4 1003dec7 f   kernel32:KERNEL32.dll
 0001:0003cecd       _SetUnhandledExceptionFilter@4 1003decd f   kernel32:KERNEL32.dll
 0001:0003ced3       _GetStartupInfoW@4         1003ded3 f   kernel32:KERNEL32.dll
 0001:0003ced9       _IsProcessorFeaturePresent@4 1003ded9 f   kernel32:KERNEL32.dll
 0001:0003cedf       _MultiByteToWideChar@24    1003dedf f   kernel32:KERNEL32.dll
 0001:0003cee5       _WideCharToMultiByte@32    1003dee5 f   kernel32:KERNEL32.dll
 0001:0003ceeb       _HeapAlloc@12              1003deeb f   kernel32:KERNEL32.dll
 0001:0003cef1       _HeapFree@12               1003def1 f   kernel32:KERNEL32.dll
 0001:0003cef7       _GetProcessHeap@0          1003def7 f   kernel32:KERNEL32.dll
 0001:0003cefd       _GetCurrentProcess@0       1003defd f   kernel32:KERNEL32.dll
 0001:0003cf03       _TerminateProcess@8        1003df03 f   kernel32:KERNEL32.dll
 0001:0003cf10       ___scrt_stub_for_acrt_initialize 1003df10 f   MSVCRTD:ucrt_stubs.obj
 0001:0003cf10       ___acrt_initialize         1003df10 f   MSVCRTD:ucrt_stubs.obj
 0001:0003cf10       ___vcrt_initialize         1003df10 f   MSVCRTD:ucrt_stubs.obj
 0001:0003cf20       ___vcrt_thread_attach      1003df20 f   MSVCRTD:ucrt_stubs.obj
 0001:0003cf20       ___scrt_stub_for_acrt_thread_attach 1003df20 f   MSVCRTD:ucrt_stubs.obj
 0001:0003cf20       ___acrt_thread_attach      1003df20 f   MSVCRTD:ucrt_stubs.obj
 0001:0003cf30       ___acrt_thread_detach      1003df30 f   MSVCRTD:ucrt_stubs.obj
 0001:0003cf30       ___scrt_stub_for_acrt_thread_detach 1003df30 f   MSVCRTD:ucrt_stubs.obj
 0001:0003cf30       ___vcrt_thread_detach      1003df30 f   MSVCRTD:ucrt_stubs.obj
 0001:0003cf40       ___acrt_uninitialize       1003df40 f   MSVCRTD:ucrt_stubs.obj
 0001:0003cf40       ___scrt_stub_for_acrt_uninitialize 1003df40 f   MSVCRTD:ucrt_stubs.obj
 0001:0003cf40       ___vcrt_uninitialize       1003df40 f   MSVCRTD:ucrt_stubs.obj
 0001:0003cf50       ___vcrt_uninitialize_critical 1003df50 f   MSVCRTD:ucrt_stubs.obj
 0001:0003cf50       ___scrt_stub_for_acrt_uninitialize_critical 1003df50 f   MSVCRTD:ucrt_stubs.obj
 0001:0003cf50       ___acrt_uninitialize_critical 1003df50 f   MSVCRTD:ucrt_stubs.obj
 0001:0003cf60       ___scrt_stub_for_is_c_termination_complete 1003df60 f   MSVCRTD:ucrt_stubs.obj
 0001:0003cf60       __is_c_termination_complete 1003df60 f   MSVCRTD:ucrt_stubs.obj
 0001:0003cf70       __filter_x86_sse2_floating_point_exception 1003df70 f   MSVCRTD:x86_exception_filter.obj
 0001:0003cf70       __filter_x86_sse2_floating_point_exception_default 1003df70 f   MSVCRTD:x86_exception_filter.obj
 0002:00000000       __imp__LoadLibraryA@4      1003f000     kernel32:KERNEL32.dll
 0002:00000004       __imp__GetCurrentProcess@0 1003f004     kernel32:KERNEL32.dll
 0002:00000008       __imp__GetProcessHeap@0    1003f008     kernel32:KERNEL32.dll
 0002:0000000c       __imp__HeapFree@12         1003f00c     kernel32:KERNEL32.dll
 0002:00000010       __imp__HeapAlloc@12        1003f010     kernel32:KERNEL32.dll
 0002:00000014       __imp__WideCharToMultiByte@32 1003f014     kernel32:KERNEL32.dll
 0002:00000018       __imp__MultiByteToWideChar@24 1003f018     kernel32:KERNEL32.dll
 0002:0000001c       __imp__IsProcessorFeaturePresent@4 1003f01c     kernel32:KERNEL32.dll
 0002:00000020       __imp__GetStartupInfoW@4   1003f020     kernel32:KERNEL32.dll
 0002:00000024       __imp__SetUnhandledExceptionFilter@4 1003f024     kernel32:KERNEL32.dll
 0002:00000028       __imp__UnhandledExceptionFilter@4 1003f028     kernel32:KERNEL32.dll
 0002:0000002c       __imp__IsDebuggerPresent@0 1003f02c     kernel32:KERNEL32.dll
 0002:00000030       __imp__DisableThreadLibraryCalls@4 1003f030     kernel32:KERNEL32.dll
 0002:00000034       __imp__GetSystemTimeAsFileTime@4 1003f034     kernel32:KERNEL32.dll
 0002:00000038       __imp__GetCurrentThreadId@0 1003f038     kernel32:KERNEL32.dll
 0002:0000003c       __imp__GetCurrentProcessId@0 1003f03c     kernel32:KERNEL32.dll
 0002:00000040       __imp__QueryPerformanceCounter@4 1003f040     kernel32:KERNEL32.dll
 0002:00000044       __imp__InitializeSListHead@4 1003f044     kernel32:KERNEL32.dll
 0002:00000048       __imp__LoadLibraryExA@12   1003f048     kernel32:KERNEL32.dll
 0002:0000004c       __imp__GetProcAddress@8    1003f04c     kernel32:KERNEL32.dll
 0002:00000050       __imp__GetModuleHandleW@4  1003f050     kernel32:KERNEL32.dll
 0002:00000054       __imp__FreeLibrary@4       1003f054     kernel32:KERNEL32.dll
 0002:00000058       __imp__VirtualQuery@12     1003f058     kernel32:KERNEL32.dll
 0002:0000005c       __imp__VirtualProtect@16   1003f05c     kernel32:KERNEL32.dll
 0002:00000060       __imp__GetSystemInfo@4     1003f060     kernel32:KERNEL32.dll
 0002:00000064       __imp__GetLastError@0      1003f064     kernel32:KERNEL32.dll
 0002:00000068       __imp__RaiseException@16   1003f068     kernel32:KERNEL32.dll
 0002:0000006c       __imp__TerminateProcess@8  1003f06c     kernel32:KERNEL32.dll
 0002:00000070       \177KERNEL32_NULL_THUNK_DATA 1003f070     kernel32:KERNEL32.dll
 0002:00000074       __imp____std_type_info_name 1003f074     vcruntimed:VCRUNTIME140D.dll
 0002:00000078       __imp__memcpy              1003f078     vcruntimed:VCRUNTIME140D.dll
 0002:0000007c       __imp__strstr              1003f07c     vcruntimed:VCRUNTIME140D.dll
 0002:00000080       __imp____std_type_info_destroy_list 1003f080     vcruntimed:VCRUNTIME140D.dll
 0002:00000084       __imp___except_handler4_common 1003f084     vcruntimed:VCRUNTIME140D.dll
 0002:00000088       __imp____vcrt_GetModuleFileNameW 1003f088     vcruntimed:VCRUNTIME140D.dll
 0002:0000008c       __imp____vcrt_GetModuleHandleW 1003f08c     vcruntimed:VCRUNTIME140D.dll
 0002:00000090       __imp____vcrt_LoadLibraryExW 1003f090     vcruntimed:VCRUNTIME140D.dll
 0002:00000094       __imp__memset              1003f094     vcruntimed:VCRUNTIME140D.dll
 0002:00000098       __imp___purecall           1003f098     vcruntimed:VCRUNTIME140D.dll
 0002:0000009c       \177VCRUNTIME140D_NULL_THUNK_DATA 1003f09c     vcruntimed:VCRUNTIME140D.dll
 0002:000000a0       __imp__strcpy_s            1003f0a0     ucrtd:ucrtbased.dll
 0002:000000a4       __imp__strcat_s            1003f0a4     ucrtd:ucrtbased.dll
 0002:000000a8       __imp____stdio_common_vsprintf_s 1003f0a8     ucrtd:ucrtbased.dll
 0002:000000ac       __imp___wmakepath_s        1003f0ac     ucrtd:ucrtbased.dll
 0002:000000b0       __imp___wsplitpath_s       1003f0b0     ucrtd:ucrtbased.dll
 0002:000000b4       __imp__wcscpy_s            1003f0b4     ucrtd:ucrtbased.dll
 0002:000000b8       __imp___cexit              1003f0b8     ucrtd:ucrtbased.dll
 0002:000000bc       __imp___free_dbg           1003f0bc     ucrtd:ucrtbased.dll
 0002:000000c0       __imp___CrtDbgReportW      1003f0c0     ucrtd:ucrtbased.dll
 0002:000000c4       __imp___except1            1003f0c4     ucrtd:ucrtbased.dll
 0002:000000c8       __imp__sin                 1003f0c8     ucrtd:ucrtbased.dll
 0002:000000cc       __imp__cos                 1003f0cc     ucrtd:ucrtbased.dll
 0002:000000d0       __imp__pow                 1003f0d0     ucrtd:ucrtbased.dll
 0002:000000d4       __imp__abs                 1003f0d4     ucrtd:ucrtbased.dll
 0002:000000d8       __imp___wassert            1003f0d8     ucrtd:ucrtbased.dll
 0002:000000dc       __imp___fpclass            1003f0dc     ucrtd:ucrtbased.dll
 0002:000000e0       __imp__floor               1003f0e0     ucrtd:ucrtbased.dll
 0002:000000e4       __imp__sqrt                1003f0e4     ucrtd:ucrtbased.dll
 0002:000000e8       __imp__fabs                1003f0e8     ucrtd:ucrtbased.dll
 0002:000000ec       __imp__atan2               1003f0ec     ucrtd:ucrtbased.dll
 0002:000000f0       __imp__strcmp              1003f0f0     ucrtd:ucrtbased.dll
 0002:000000f4       __imp__terminate           1003f0f4     ucrtd:ucrtbased.dll
 0002:000000f8       __imp___crt_atexit         1003f0f8     ucrtd:ucrtbased.dll
 0002:000000fc       __imp___execute_onexit_table 1003f0fc     ucrtd:ucrtbased.dll
 0002:00000100       __imp___register_onexit_function 1003f100     ucrtd:ucrtbased.dll
 0002:00000104       __imp___initialize_onexit_table 1003f104     ucrtd:ucrtbased.dll
 0002:00000108       __imp___initialize_narrow_environment 1003f108     ucrtd:ucrtbased.dll
 0002:0000010c       __imp___configure_narrow_argv 1003f10c     ucrtd:ucrtbased.dll
 0002:00000110       __imp___seh_filter_dll     1003f110     ucrtd:ucrtbased.dll
 0002:00000114       __imp___initterm_e         1003f114     ucrtd:ucrtbased.dll
 0002:00000118       __imp___CrtDbgReport       1003f118     ucrtd:ucrtbased.dll
 0002:0000011c       __imp___initterm           1003f11c     ucrtd:ucrtbased.dll
 0002:00000120       __imp___crt_at_quick_exit  1003f120     ucrtd:ucrtbased.dll
 0002:00000124       \177ucrtbased_NULL_THUNK_DATA 1003f124     ucrtd:ucrtbased.dll
 0002:00000128       ___guard_check_icall_fptr  1003f128     MSVCRTD:guard_support.obj
 0002:0000012c       ___xc_a                    1003f12c     MSVCRTD:initializers.obj
 0002:00000228       ___xc_z                    1003f228     MSVCRTD:initializers.obj
 0002:0000022c       ___xi_a                    1003f22c     MSVCRTD:initializers.obj
 0002:00000230       ___xi_z                    1003f230     MSVCRTD:initializers.obj
 0002:00000234       ___xp_a                    1003f234     MSVCRTD:initializers.obj
 0002:00000238       ___xp_z                    1003f238     MSVCRTD:initializers.obj
 0002:0000023c       ___xt_a                    1003f23c     MSVCRTD:initializers.obj
 0002:00000240       ___xt_z                    1003f240     MSVCRTD:initializers.obj
 0002:00000250       ??_7PxFoundation@physx@@6B@ 1003f250     Adjacencies.obj
 0002:00000270       ??_C@_0DC@DMHHONHL@Adjacencies?3?3GetBoundaryVertice@ 1003f270     Adjacencies.obj
 0002:000002a4       ??_C@_0DM@FMAEBCNB@C?3?2Proj?2PhysX?2physx?2source?2phys@ 1003f2a4     Adjacencies.obj
 0002:000002e0       ??_C@_0CK@KKNAOLHI@Adjacencies?3?3MakeLastRef?3?5NULL?5@ 1003f2e0     Adjacencies.obj
 0002:0000030c       ??_C@_0DA@FMEHLBKI@Adjacencies?3?3UpdateLink?3?5invali@ 1003f30c     Adjacencies.obj
 0002:00000340       ??_C@_0EA@CPHOACLK@Adjacencies?3?3CreateDatabase?3?5ca@ 1003f340     Adjacencies.obj
 0002:00000380       ??_C@_0BE@LIEIDFLP@NbEdges?$DN?$DNmNbFaces?$CK3@ 1003f380     Adjacencies.obj
 0002:00000398       ??_C@_0JH@OAGDEHEP@?$CIGu?3?3EdgeTriangleAC?3?3HasActiveE@ 1003f398     Adjacencies.obj
 0002:00000430       ??_C@_0JH@GOIKPHAD@?$CIGu?3?3EdgeTriangleAC?3?3HasActiveE@ 1003f430     Adjacencies.obj
 0002:000004c8       ??_C@_0JH@OMLLOEFP@?$CIGu?3?3EdgeTriangleAC?3?3HasActiveE@ 1003f4c8     Adjacencies.obj
 0002:00000560       ??_C@_0BM@OIFKLHDN@?$DMallocation?5names?5disabled?$DO@ 1003f560     Adjacencies.obj
 0002:0000057c       __real@3dcccccd            1003f57c     Adjacencies.obj
 0002:00000580       ?g_PXSinCoefficients0@aos@shdfnd@physx@@3UPX_VECTORF32@123@B 1003f580     Cooking.obj
 0002:00000590       ?g_PXSinCoefficients1@aos@shdfnd@physx@@3UPX_VECTORF32@123@B 1003f590     Cooking.obj
 0002:000005a0       ?g_PXSinCoefficients2@aos@shdfnd@physx@@3UPX_VECTORF32@123@B 1003f5a0     Cooking.obj
 0002:000005b0       ?g_PXCosCoefficients0@aos@shdfnd@physx@@3UPX_VECTORF32@123@B 1003f5b0     Cooking.obj
 0002:000005c0       ?g_PXCosCoefficients1@aos@shdfnd@physx@@3UPX_VECTORF32@123@B 1003f5c0     Cooking.obj
 0002:000005d0       ?g_PXCosCoefficients2@aos@shdfnd@physx@@3UPX_VECTORF32@123@B 1003f5d0     Cooking.obj
 0002:000005e0       ?g_PXTanCoefficients0@aos@shdfnd@physx@@3UPX_VECTORF32@123@B 1003f5e0     Cooking.obj
 0002:000005f0       ?g_PXTanCoefficients1@aos@shdfnd@physx@@3UPX_VECTORF32@123@B 1003f5f0     Cooking.obj
 0002:00000600       ?g_PXTanCoefficients2@aos@shdfnd@physx@@3UPX_VECTORF32@123@B 1003f600     Cooking.obj
 0002:00000610       ?g_PXASinCoefficients0@aos@shdfnd@physx@@3UPX_VECTORF32@123@B 1003f610     Cooking.obj
 0002:00000620       ?g_PXASinCoefficients1@aos@shdfnd@physx@@3UPX_VECTORF32@123@B 1003f620     Cooking.obj
 0002:00000630       ?g_PXASinCoefficients2@aos@shdfnd@physx@@3UPX_VECTORF32@123@B 1003f630     Cooking.obj
 0002:00000640       ?g_PXATanCoefficients0@aos@shdfnd@physx@@3UPX_VECTORF32@123@B 1003f640     Cooking.obj
 0002:00000650       ?g_PXATanCoefficients1@aos@shdfnd@physx@@3UPX_VECTORF32@123@B 1003f650     Cooking.obj
 0002:00000660       ?g_PXATanCoefficients2@aos@shdfnd@physx@@3UPX_VECTORF32@123@B 1003f660     Cooking.obj
 0002:00000670       ?g_PXSinEstCoefficients@aos@shdfnd@physx@@3UPX_VECTORF32@123@B 1003f670     Cooking.obj
 0002:00000680       ?g_PXCosEstCoefficients@aos@shdfnd@physx@@3UPX_VECTORF32@123@B 1003f680     Cooking.obj
 0002:00000690       ?g_PXTanEstCoefficients@aos@shdfnd@physx@@3UPX_VECTORF32@123@B 1003f690     Cooking.obj
 0002:000006a0       ?g_PXATanEstCoefficients@aos@shdfnd@physx@@3UPX_VECTORF32@123@B 1003f6a0     Cooking.obj
 0002:000006b0       ?g_PXASinEstCoefficients@aos@shdfnd@physx@@3UPX_VECTORF32@123@B 1003f6b0     Cooking.obj
 0002:000006c0       ?g_PXASinEstConstants@aos@shdfnd@physx@@3UPX_VECTORF32@123@B 1003f6c0     Cooking.obj
 0002:000006d0       ?g_PXPiConstants0@aos@shdfnd@physx@@3UPX_VECTORF32@123@B 1003f6d0     Cooking.obj
 0002:000006e0       ?g_PXReciprocalTwoPi@aos@shdfnd@physx@@3UPX_VECTORF32@123@B 1003f6e0     Cooking.obj
 0002:000006f0       ?g_PXTwoPi@aos@shdfnd@physx@@3UPX_VECTORF32@123@B 1003f6f0     Cooking.obj
 0002:00000720       ?sBufferSize@DebugText@Cm@physx@@2HB 1003f720     Cooking.obj
 0002:00000724       ??_C@_06EJKDJEDO@PxBase@   1003f724     Cooking.obj
 0002:0000072c       ??_C@_0N@CDGINLLF@PxConvexMesh@ 1003f72c     Cooking.obj
 0002:0000073c       ??_C@_0O@PBAKPCEC@PxHeightField@ 1003f73c     Cooking.obj
 0002:0000074c       ??_7PxBase@physx@@6B@      1003f74c     Cooking.obj
 0002:00000760       ??_7PxConvexMesh@physx@@6B@ 1003f760     Cooking.obj
 0002:0000079c       ??_7PxCooking@physx@@6B@   1003f79c     Cooking.obj
 0002:000007dc       ??_7Cooking@physx@@6B@     1003f7dc     Cooking.obj
 0002:0000081c       ??_7RefCountable@Cm@physx@@6B@ 1003f81c     Cooking.obj
 0002:00000824       ??_C@_0DH@BMNHMHJD@C?3?2Proj?2PhysX?2physx?2source?2comm@ 1003f824     Cooking.obj
 0002:0000085c       ??_C@_0P@COLCJMHF@mRefCount?5?$DN?$DN?51@ 1003f85c     Cooking.obj
 0002:0000086c       ??_7ConvexMesh@Gu@physx@@6BPxConvexMesh@2@@ 1003f86c     Cooking.obj
 0002:000008b0       ??_7ConvexMesh@Gu@physx@@6BRefCountable@Cm@2@@ 1003f8b0     Cooking.obj
 0002:000008b8       ??_7PxHeightField@physx@@6B@ 1003f8b8     Cooking.obj
 0002:00000908       ??_C@_0DM@OBFJDBCH@C?3?2Proj?2PhysX?2physx?2source?2geom@ 1003f908     Cooking.obj
 0002:00000944       ??_C@_0BL@KDIAIEJL@isValidVertex?$CIvertexIndex?$CJ@ 1003f944     Cooking.obj
 0002:00000960       ??_C@_0FC@PJIHAFK@Cooking?3?3validateTriangleMesh?3?5@ 1003f960     Cooking.obj
 0002:000009b4       ??_C@_0DI@JCLACPPO@C?3?2Proj?2PhysX?2physx?2source?2phys@ 1003f9b4     Cooking.obj
 0002:000009f0       ??_C@_0EK@EKAIJEBL@Cooking?3?3cookConvexMesh?3?5user?9p@ 1003f9f0     Cooking.obj
 0002:00000a40       ??_C@_0FA@GFFGAPML@Cooking?3?3cookConvexMesh?3?5provid@ 1003fa40     Cooking.obj
 0002:00000a90       ??_C@_0EP@PKDCPNNO@Cooking?3?3cookConvexMesh?3?5provid@ 1003fa90     Cooking.obj
 0002:00000ae0       ??_C@_07MFHICPHG@hullLib@  1003fae0     Cooking.obj
 0002:00000ae8       ??_C@_0EO@LKFMMDE@Cooking?3?3cookConvexMesh?3?5user?9p@ 1003fae8     Cooking.obj
 0002:00000b38       ??_C@_0EN@FCEPCAFC@Cooking?3?3createHeightField?3?5use@ 1003fb38     Cooking.obj
 0002:00000b88       ??_C@_0EM@MHLLDEBI@static_cast?$DMPs?3?3Foundation?$CK?$DO?$CI?$CGf@ 1003fb88     Cooking.obj
 0002:00000bd4       ??_C@_0DI@JJNIELJD@C?3?2Proj?2PhysX?2physx?2source?2foun@ 1003fbd4     Cooking.obj
 0002:00000c0c       ??_C@_0CP@CPGGIPKL@?$CI?$CBcapacity?$CJ?5?$HM?$HM?5?$CInewData?5?$CG?$CG?5?$CInew@ 1003fc0c     Cooking.obj
 0002:00000c3c       ??_C@_0BC@GKLGGHPD@size?5?$DM?$DN?5mCapacity@ 1003fc3c     Cooking.obj
 0002:00000c50       ??_C@_0BM@BMFMDKFG@this?9?$DOcapacity?$CI?$CJ?5?$DM?5capacity@ 1003fc50     Cooking.obj
 0002:00000c6c       __real@00000000            1003fc6c     Cooking.obj
 0002:00000c70       __real@3a83126f            1003fc70     Cooking.obj
 0002:00000c74       __real@3f800000            1003fc74     Cooking.obj
 0002:00000c78       __real@ba83126f            1003fc78     Cooking.obj
 0002:00000c7c       __real@bf800000            1003fc7c     Cooking.obj
 0002:00000c80       ??_C@_0DN@CNOEGNPA@C?3?2Proj?2PhysX?2physx?2source?2phys@ 1003fc80     CookingUtils.obj
 0002:00000cc0       ??_C@_06KDGGGLIJ@PxVec3@   1003fcc0     CookingUtils.obj
 0002:00000cc8       ??_C@_08MOINBLFP@EdgeData@ 1003fcc8     EdgeList.obj
 0002:00000cd4       ??_C@_0DJ@BODNIFNH@C?3?2Proj?2PhysX?2physx?2source?2phys@ 1003fcd4     EdgeList.obj
 0002:00000d10       ??_C@_0BB@OMGANHJB@EdgeTriangleData@ 1003fd10     EdgeList.obj
 0002:00000d24       ??_C@_0N@HMDODPCO@EdgeDescData@ 1003fd24     EdgeList.obj
 0002:00000d34       ??_C@_0BG@GLJDPFLF@EdgeList?5FacesByEdges@ 1003fd34     EdgeList.obj
 0002:00000d4c       ??_C@_0CO@GBNJFPN@EdgeList?3?3CreateFacesToEdges?3?5N@ 1003fd4c     EdgeList.obj
 0002:00000d7c       ??_C@_0BN@EPPJDECF@EdgeListBuilder?5FacesByEdges@ 1003fd7c     EdgeList.obj
 0002:00000d9c       ??_C@_0CO@EHJBBMNK@EdgeList?3?3ComputeActiveEdges?3?5N@ 1003fd9c     EdgeList.obj
 0002:00000dcc       ??_C@_0DI@GBHLFOFP@ActiveEdges?3?3ComputeConvexEdges@ 1003fdcc     EdgeList.obj
 0002:00000e04       ??_C@_0DM@JOGBLHDI@ActiveEdges?3?3ComputeConvexEdges@ 1003fe04     EdgeList.obj
 0002:00000e40       ??_C@_0ED@FEMJKPEL@ActiveEdges?3?3ComputeConvexEdges@ 1003fe40     EdgeList.obj
 0002:00000e88       ??_C@_0EB@BFDPMFCD@ActiveEdges?3?3ComputeConvexEdges@ 1003fe88     EdgeList.obj
 0002:00000ecc       ??_C@_04DDKJGDCM@bool@     1003fecc     EdgeList.obj
 0002:00000ed4       ??_C@_06FCDOAHIN@wfaces@   1003fed4     EdgeList.obj
 0002:00000edc       ??_C@_0BB@KCPJALAK@dfaces?5?$HM?$HM?5wfaces@ 1003fedc     EdgeList.obj
 0002:00000ef0       ??_C@_04CJNNGFMA@j?$DN?$DN2@ 1003fef0     EdgeList.obj
 0002:00000ef8       __real@bf7fbe77            1003fef8     EdgeList.obj
 0002:00000f00       __xmm@80000000800000008000000080000000 1003ff00     EdgeList.obj
 0002:00000f10       ??_C@_0M@GOCDBJNH@MeshCleaner@ 1003ff10     MeshCleaner.obj
 0002:00000f1c       ??_C@_0DM@HJFPDPIF@C?3?2Proj?2PhysX?2physx?2source?2phys@ 1003ff1c     MeshCleaner.obj
 0002:00000f58       ??_C@_0L@FKHAJINL@cleanVerts@ 1003ff58     MeshCleaner.obj
 0002:00000f64       ??_C@_09PEPOFECJ@hashTable@ 1003ff64     MeshCleaner.obj
 0002:00000f70       ??_C@_0BB@EKDFPEDB@nbCleanedTris?$DM?$DNi@ 1003ff70     MeshCleaner.obj
 0002:00000f84       __real@3f000000            1003ff84     MeshCleaner.obj
 0002:00000f88       ??_7Quantizer@physx@@6B@   1003ff88     Quantizer.obj
 0002:00000fa0       ??_C@_1GG@CELPIPIF@?$AAC?$AA?3?$AA?2?$AAP?$AAr?$AAo?$AAj?$AA?2?$AAP?$AAh?$AAy?$AAs?$AAX?$AA?2?$AAp@ 1003ffa0     Quantizer.obj
 0002:00001008       ??_C@_1BG@NCGFCOOL@?$AAi?$AAn?$AAd?$AAe?$AAx?$AA?5?$AA?$DM?$AA?$DN?$AA?5?$AA2@ 10040008     Quantizer.obj
 0002:00001020       ??_C@_1GM@FDBLLBCN@?$AAC?$AA?3?$AA?2?$AAP?$AAr?$AAo?$AAj?$AA?2?$AAP?$AAh?$AAy?$AAs?$AAX?$AA?2?$AAp@ 10040020     Quantizer.obj
 0002:0000108c       ??_C@_1BE@OMKIDIPD@?$AAi?$AAs?$AAV?$AAa?$AAl?$AAi?$AAd?$AA?$CI?$AA?$CJ@ 1004008c     Quantizer.obj
 0002:000010a0       ??_7QuantizerImpl@@6B@     100400a0     Quantizer.obj
 0002:000010b4       ??_C@_0DK@NBEEAPBA@C?3?2Proj?2PhysX?2physx?2source?2phys@ 100400b4     Quantizer.obj
 0002:000010f0       ??_C@_05LMJPANIN@PxU32@    100400f0     Quantizer.obj
 0002:000010f8       ??_C@_09GCLCCGEM@i?5?$DM?5mSize@ 100400f8     Quantizer.obj
 0002:00001104       ??_C@_0BD@IDLOIMGI@index?5?$DM?5inputCount@ 10040104     Quantizer.obj
 0002:00001118       __real@38d1b717            10040118     Quantizer.obj
 0002:0000111c       __real@3c23d70a            1004011c     Quantizer.obj
 0002:00001120       __real@3f8020c5            10040120     Quantizer.obj
 0002:00001124       __real@7e7fffff            10040124     Quantizer.obj
 0002:00001128       __real@7f7fffff            10040128     Quantizer.obj
 0002:0000112c       __real@fe7fffff            1004012c     Quantizer.obj
 0002:00001130       __xmm@41f00000000000000000000000000000 10040130     Quantizer.obj
 0002:00001160       ??_C@_0EL@BLFINAOC@C?3?2Proj?2PhysX?2physx?2source?2foun@ 10040160     BVHStructureBuilder.obj
 0002:000011ac       ??_C@_0BG@JKJBBGNK@isAligned16?$CI?$CIvoid?$CK?$CJf?$CJ@ 100401ac     BVHStructureBuilder.obj
 0002:000011c8       ??_C@_0EE@OHDEOCHB@C?3?2Proj?2PhysX?2physx?2source?2phys@ 100401c8     BVHStructureBuilder.obj
 0002:0000120c       ??_C@_0M@EIOGEGJH@nbPrims?$DM?$DN16@ 1004020c     BVHStructureBuilder.obj
 0002:00001218       ??_C@_0N@LFHPCCPM@pool?$FLi?$FN?4mPos@ 10040218     BVHStructureBuilder.obj
 0002:00001228       ??_C@_0P@BDBEGIPP@desc?4isValid?$CI?$CJ@ 10040228     BVHStructureBuilder.obj
 0002:00001238       ??_C@_09JDCJAPKD@PxBounds3@ 10040238     BVHStructureBuilder.obj
 0002:00001244       ??_C@_0M@JIJLJDLI@buildStatus@ 10040244     BVHStructureBuilder.obj
 0002:00001250       ??_C@_0BA@KPLGFFHA@AABB?5tree?5nodes@ 10040250     BVHStructureBuilder.obj
 0002:00001260       ??_C@_0CH@HHDIGKLP@mNumNodes?$DN?$DNnodeAllocator?4mTotal@ 10040260     BVHStructureBuilder.obj
 0002:00001288       __real@3ba3d70a            10040288     BVHStructureBuilder.obj
 0002:000012b0       ?reductionFactors@SubSortQuick@physx@@2QBMB 100402b0     RTreeCooking.obj
 0002:000012bc       ?stopAtTrisPerLeaf1@SubSortQuick@physx@@2QBIB 100402bc     RTreeCooking.obj
 0002:00001358       ??_C@_1DG@HINPBGLP@?$AAi?$AAs?$AAV?$AAa?$AAl?$AAi?$AAd?$AA?$CI?$AA?$CJ?$AA?5?$AA?$CG?$AA?$CG?$AA?5?$AAb?$AAo@ 10040358     RTreeCooking.obj
 0002:00001390       ??_C@_0BA@DLCJDKDM@NonTrackedAlloc@ 10040390     RTreeCooking.obj
 0002:000013a0       ??_C@_0BB@OMCPGIOD@isValidFloatV?$CIa?$CJ@ 100403a0     RTreeCooking.obj
 0002:000013b4       ??_C@_0BH@MCAIKHPH@isAligned16?$CI?$CIvoid?$CK?$CJ?$CGf?$CJ@ 100403b4     RTreeCooking.obj
 0002:000013cc       ??_C@_0BB@OJGAHOGG@isValidFloatV?$CIf?$CJ@ 100403cc     RTreeCooking.obj
 0002:000013e0       ??_C@_0BA@EMELBPPG@isValidVec3V?$CIa?$CJ@ 100403e0     RTreeCooking.obj
 0002:000013f0       ??_C@_0BA@EOANKBKP@isValidVec3V?$CIb?$CJ@ 100403f0     RTreeCooking.obj
 0002:00001400       ??_C@_0EC@OFEDLPAO@C?3?2Proj?2PhysX?2physx?2source?2phys@ 10040400     RTreeCooking.obj
 0002:00001444       ??_C@_0DP@MOLEKNBA@Input?5mesh?5triangle?8s?5vertex?5in@ 10040444     RTreeCooking.obj
 0002:00001484       ??_C@_0CE@OPCEFGPD@permute?5?$CL?5clusterSize?5?$DM?$DN?5permut@ 10040484     RTreeCooking.obj
 0002:000014a8       ??_C@_0CC@IFBCLGG@maxBoundsPerLeafPage?5?$DO?$DN?5RTREE_N@ 100404a8     RTreeCooking.obj
 0002:000014cc       ??_C@_0BA@DLODHOME@clusterSize?5?$DO?50@ 100404cc     RTreeCooking.obj
 0002:000014dc       ??_C@_0CB@HNMOHOIM@permute?$FL0?$FN?5?$DM?5boundCenters?4size?$CI@ 100404dc     RTreeCooking.obj
 0002:00001500       ??_C@_0CB@BHHEMBKC@permute?$FLi?$FN?5?$DM?5boundCenters?4size?$CI@ 10040500     RTreeCooking.obj
 0002:00001524       ??_C@_0DE@FNPGHHHI@leftover?5?$DN?$DN?50?5?$HM?$HM?5cluster4?$CKi?5?$CL?5c@ 10040524     RTreeCooking.obj
 0002:00001558       ??_C@_07ELGPMHDP@metricL@  10040558     RTreeCooking.obj
 0002:00001560       ??_C@_07JPCOPIOA@metricR@  10040560     RTreeCooking.obj
 0002:00001568       ??_C@_0M@OKCMHFAG@tempPermute@ 10040568     RTreeCooking.obj
 0002:00001574       ??_C@_09CMNIGKAE@tempRanks@ 10040574     RTreeCooking.obj
 0002:00001580       ??_C@_0CP@DKNKGHIK@splitEndL?9splitStartL?5?$DN?$DN?5splitS@ 10040580     RTreeCooking.obj
 0002:000015b0       ??_C@_0BJ@DBNEPNIE@splitStartL?5?$DM?$DN?5splitEndL@ 100405b0     RTreeCooking.obj
 0002:000015cc       ??_C@_0BJ@CMNIPACK@splitStartR?5?$DO?$DN?5splitEndR@ 100405cc     RTreeCooking.obj
 0002:000015e8       ??_C@_0P@FDBOEJDH@splitEndR?5?$DO?$DN?51@ 100405e8     RTreeCooking.obj
 0002:000015f8       ??_C@_0BP@OBBGEEJF@splitEndL?5?$DM?5PxI32?$CIclusterSize?$CJ@ 100405f8     RTreeCooking.obj
 0002:00001618       ??_C@_0EE@HMDFAMJJ@?$CIcountL0?5?$DN?$DN?5countR0?$CJ?5?$CG?$CG?5?$CIcountL@ 10040618     RTreeCooking.obj
 0002:0000165c       ??_C@_0CG@HKJJBOBJ@PxU32?$CIcountL?5?$CL?5countR?$CJ?5?$DN?$DN?5clust@ 1004065c     RTreeCooking.obj
 0002:00001684       ??_C@_0BB@BLBBKHCG@split?4count?5?$DO?$DN?51@ 10040684     RTreeCooking.obj
 0002:00001698       ??_C@_0BH@CPBDCMGA@maxSplit?5?$CB?$DN?50xFFFFffff@ 10040698     RTreeCooking.obj
 0002:000016b0       ??_C@_0O@KGFPNKLN@old?4count?5?$DO?51@ 100406b0     RTreeCooking.obj
 0002:000016c0       ??_C@_0BA@MHFPJACL@splitLocal?5?$DO?$DN?51@ 100406c0     RTreeCooking.obj
 0002:000016d0       ??_C@_0BK@HBDDGBBB@old?4count?9splitLocal?5?$DO?$DN?51@ 100406d0     RTreeCooking.obj
 0002:000016ec       ??_C@_0BJ@CFFGDPAB@splits?4size?$CI?$CJ?5?$DN?$DN?5RTREE_N@ 100406ec     RTreeCooking.obj
 0002:00001708       ??_C@_0BD@CJCBODNJ@sum?5?$DN?$DN?5clusterSize@ 10040708     RTreeCooking.obj
 0002:0000171c       ??_C@_0CB@OOGGJCCO@splitStarts?$FLj?91?$FN?$DM?$DNsplitStarts?$FLj@ 1004071c     RTreeCooking.obj
 0002:00001740       ??_C@_0CM@MIFOAGPK@splitCounts?$FLj?$FN?5?$DO?50?5?$HM?$HM?5clusterSi@ 10040740     RTreeCooking.obj
 0002:0000176c       ??_C@_0DC@FKLAKLHP@splitStarts?$FLj?91?$FN?$CLsplitCounts?$FLj?9@ 1004076c     RTreeCooking.obj
 0002:000017a0       ??_C@_0BJ@KOIGDPK@sumCounts?5?$DN?$DN?5clusterSize@ 100407a0     RTreeCooking.obj
 0002:000017bc       ??_C@_0DL@DKLKFAKJ@splitStarts?$FLRTREE_N?91?$FN?$CLsplitCou@ 100407bc     RTreeCooking.obj
 0002:000017f8       ??_C@_0BB@EAGMBNDP@splitCount?5?$DM?$DN?516@ 100407f8     RTreeCooking.obj
 0002:0000180c       ??_C@_0BA@FINHNEIC@splitCount?5?$DN?$DN?50@ 1004080c     RTreeCooking.obj
 0002:0000181c       ??_C@_0DA@DMMOJMPK@hint?5?$DN?$DN?5PxMeshCookingHint?3?3eCOO@ 1004081c     RTreeCooking.obj
 0002:0000184c       ??_C@_0BP@JDMAEMGC@permute?$FLnumBounds?$FN?5?$DN?$DN?5sentinel@ 1004084c     RTreeCooking.obj
 0002:0000186c       ??_C@_0BB@FMHDLFFI@?$CIq?4ptr?5?$CG?51?$CJ?5?$DN?$DN?50@ 1004086c     RTreeCooking.obj
 0002:00001880       ??_C@_0L@DLMKKOLK@q?4isLeaf?$CI?$CJ@ 10040880     RTreeCooking.obj
 0002:0000188c       ??_C@_0DJ@FPPKJOAC@child?4leafCount?5?$DN?$DN?5?91?5?$HM?$HM?5child?4@ 1004088c     RTreeCooking.obj
 0002:000018c8       ??_C@_0BF@NIPNCMBP@q?4ptr?5?$CF?5RTREE_N?5?$DN?$DN?50@ 100408c8     RTreeCooking.obj
 0002:000018e0       ??_C@_0CB@PPFJJKOM@qtreeNodes?4size?$CI?$CJ?5?$CF?5RTREE_N?5?$DN?$DN?5@ 100408e0     RTreeCooking.obj
 0002:00001904       ??_C@_0CD@GGMNBOAH@result?4mTotalNodes?5?$CF?5pageSize?5?$DN@ 10040904     RTreeCooking.obj
 0002:00001928       ??_C@_05ICCGDNCO@mSize@    10040928     RTreeCooking.obj
 0002:00001930       ??_C@_0DP@BBCEPHLE@C?3?2Proj?2PhysX?2physx?2source?2phys@ 10040930     RTreeCooking.obj
 0002:00001970       ??_C@_0BC@IFJJKIC@k?5?$DM?$DN?5right?9left?$CL1@ 10040970     RTreeCooking.obj
 0002:00001984       ??_C@_0BC@KALADCPB@pivotNewIndex?5?$DO?50@ 10040984     RTreeCooking.obj
 0002:00001998       ??_C@_0CK@HLNPMLG@pivotIndex?5?$DO?$DN?5left?5?$CG?$CG?5pivotInde@ 10040998     RTreeCooking.obj
 0002:000019c4       ??_C@_0BN@MBNGPAEL@cmpLtEq?$CIa?$FLi?$FN?0?5a?$FLstoreIndex?$FN?$CJ@ 100409c4     RTreeCooking.obj
 0002:000019e4       ??_C@_0BN@PDFALILH@cmpLtEq?$CIa?$FLstoreIndex?$FN?0?5a?$FLi?$FN?$CJ@ 100409e4     RTreeCooking.obj
 0002:00001a04       ??_C@_0DH@HFGNCLNA@C?3?2Proj?2PhysX?2physx?2source?2foun@ 10040a04     RTreeCooking.obj
 0002:00001a3c       ??_C@_0CE@KHOCKGAK@first?5?$DO?$DN?50?5?$CG?$CG?5last?5?$DM?5int32_t?$CIco@ 10040a3c     RTreeCooking.obj
 0002:00001a60       ??_C@_0CH@IDCBKFGC@?$CBcompare?$CIelements?$FLi?$FN?0?5elements?$FL@ 10040a60     RTreeCooking.obj
 0002:00001a88       ??_C@_0EA@BAFHECHC@C?3?2Proj?2PhysX?2physx?2source?2foun@ 10040a88     RTreeCooking.obj
 0002:00001ac8       ??_C@_08JNEJNCCA@?$CBempty?$CI?$CJ@ 10040ac8     RTreeCooking.obj
 0002:00001ad4       ??_C@_0BI@CKODGONH@i?5?$DM?$DN?5last?5?$CG?$CG?5j?5?$DO?$DN?5first@ 10040ad4     RTreeCooking.obj
 0002:00001aec       ??_C@_0CB@GKHFJDAL@i?5?$DM?$DN?5last?5?$CG?$CG?5first?5?$DM?$DN?5?$CIlast?5?9?51@ 10040aec     RTreeCooking.obj
 0002:00001b10       __real@3a03126f            10040b10     RTreeCooking.obj
 0002:00001b14       __real@41100000            10040b14     RTreeCooking.obj
 0002:00001b18       __real@41700000            10040b18     RTreeCooking.obj
 0002:00001b1c       __real@42200000            10040b1c     RTreeCooking.obj
 0002:00001b20       __real@477fff00            10040b20     RTreeCooking.obj
 0002:00001b24       __real@ff7fffff            10040b24     RTreeCooking.obj
 0002:00001b50       __real@40000000            10040b50     MeshBuilder.obj
 0002:00001b54       __real@c1b00000            10040b54     MeshBuilder.obj
 0002:00001b80       ??_C@_0DI@OEMPGBJG@C?3?2Proj?2PhysX?2physx?2source?2geom@ 10040b80     TriangleMeshBuilder.obj
 0002:00001bb8       ??_C@_0P@JLLGKKGO@nb?$DO0?5?$CG?$CG?5nb?$DM?$DN16@ 10040bb8     TriangleMeshBuilder.obj
 0002:00001bc8       ??_C@_0BA@IGNEICFC@index?5?$DM?5?$CI1?$DM?$DM27?$CJ@ 10040bc8     TriangleMeshBuilder.obj
 0002:00001bd8       ??_7MeshDataBase@Gu@physx@@6B@ 10040bd8     TriangleMeshBuilder.obj
 0002:00001bdc       ??_C@_0DL@JGFLHDMJ@C?3?2Proj?2PhysX?2physx?2source?2geom@ 10040bdc     TriangleMeshBuilder.obj
 0002:00001c18       ??_C@_0L@HCMLOHBN@?$CBmVertices@ 10040c18     TriangleMeshBuilder.obj
 0002:00001c24       ??_7TriangleMeshData@Gu@physx@@6B@ 10040c24     TriangleMeshBuilder.obj
 0002:00001c28       ??_C@_0N@MGGDNHNI@mNbTriangles@ 10040c28     TriangleMeshBuilder.obj
 0002:00001c38       ??_C@_0M@OGEDMEAL@mNbVertices@ 10040c38     TriangleMeshBuilder.obj
 0002:00001c44       ??_C@_0M@DCCDOKKK@?$CBmTriangles@ 10040c44     TriangleMeshBuilder.obj
 0002:00001c50       ??_C@_0L@KBOFAKLO@mTriangles@ 10040c50     TriangleMeshBuilder.obj
 0002:00001c5c       ??_C@_0BA@OCOIGPII@mGRB_triIndices@ 10040c5c     TriangleMeshBuilder.obj
 0002:00001c6c       ??_C@_0BC@JJFONCPB@?$CBmMaterialIndices@ 10040c6c     TriangleMeshBuilder.obj
 0002:00001c80       ??_C@_0N@BIOECAPM@mAdjacencies@ 10040c80     TriangleMeshBuilder.obj
 0002:00001c90       ??_7RTreeTriangleData@Gu@physx@@6B@ 10040c90     TriangleMeshBuilder.obj
 0002:00001c94       ??_7BV4TriangleData@Gu@physx@@6B@ 10040c94     TriangleMeshBuilder.obj
 0002:00001c98       ??_7RemapCallback@RTreeCooker@physx@@6B@ 10040c98     TriangleMeshBuilder.obj
 0002:00001ca0       ??_7TriangleMeshBuilder@physx@@6B@ 10040ca0     TriangleMeshBuilder.obj
 0002:00001cb4       ??_7RTreeTriangleMeshBuilder@physx@@6B@ 10040cb4     TriangleMeshBuilder.obj
 0002:00001cc8       ??_7BV4TriangleMeshBuilder@physx@@6B@ 10040cc8     TriangleMeshBuilder.obj
 0002:00001cdc       ??_C@_0DM@FNEPOAGJ@C?3?2Proj?2PhysX?2physx?2source?2foun@ 10040cdc     TriangleMeshBuilder.obj
 0002:00001d18       ??_C@_0BA@DPPPOJBK@value?5?$DM?$DN?50xffff@ 10040d18     TriangleMeshBuilder.obj
 0002:00001d28       ??_C@_09BADCAJNG@?$CBmismatch@ 10040d28     TriangleMeshBuilder.obj
 0002:00001d34       ??_C@_0M@OJJHBOGG@edgeLookups@ 10040d34     TriangleMeshBuilder.obj
 0002:00001d40       ??_C@_0EK@BNGGOKNI@C?3?2Proj?2PhysX?2physx?2source?2phys@ 10040d40     TriangleMeshBuilder.obj
 0002:00001d8c       ??_C@_0BF@CCKBOJFO@Gu?3?3TriangleT?$DMPxU32?$DO@ 10040d8c     TriangleMeshBuilder.obj
 0002:00001da8       ??_C@_0EJ@OOBMONAN@C?3?2Proj?2PhysX?2physx?2source?2phys@ 10040da8     TriangleMeshBuilder.obj
 0002:00001df4       ??_C@_0BN@CIBFOBD@mMeshData?4mFaceRemap?5?$DN?$DN?5NULL@ 10040df4     TriangleMeshBuilder.obj
 0002:00001e14       ??_C@_0DJ@IGODLHLP@TriangleMesh?3?5Enable?5mesh?5weldi@ 10040e14     TriangleMeshBuilder.obj
 0002:00001e50       ??_C@_0DK@FCJMKOOB@?$CB?$CImMeshData?4mFlags?5?$CG?5PxTriangle@ 10040e50     TriangleMeshBuilder.obj
 0002:00001e8c       ??_C@_0CN@PJHOIFC@vref0?$CB?$DNvref1?5?$CG?$CG?5vref0?$CB?$DNvref2?5?$CG?$CG@ 10040e8c     TriangleMeshBuilder.obj
 0002:00001ec0       ??_C@_0FJ@HHJLKGDF@TriangleMesh?3?5triangles?5are?5too@ 10040ec0     TriangleMeshBuilder.obj
 0002:00001f1c       ??_C@_0CB@EMMCJFHN@mMeshData?4mExtraTrigData?5?$DN?$DN?5NUL@ 10040f1c     TriangleMeshBuilder.obj
 0002:00001f40       ??_C@_0BP@CKKNCBK@mMeshData?4mAdjacencies?5?$DN?$DN?5NULL@ 10040f40     TriangleMeshBuilder.obj
 0002:00001f60       ??_C@_0CN@KGPHHHLK@TriangleMesh?3?5mesh?5is?5too?5big?5f@ 10040f60     TriangleMeshBuilder.obj
 0002:00001f90       ??_C@_0CP@JJMFODMC@edgeList?9?$DOgetNbFaces?$CI?$CJ?$DN?$DNmMeshDa@ 10040f90     TriangleMeshBuilder.obj
 0002:00001fc0       ??_C@_0MN@KDBIPDPP@?$CIGu?3?3EdgeTriangleAC?3?3HasActiveE@ 10040fc0     TriangleMeshBuilder.obj
 0002:00002090       ??_C@_0MN@OEBKAMJJ@?$CIGu?3?3EdgeTriangleAC?3?3HasActiveE@ 10041090     TriangleMeshBuilder.obj
 0002:00002160       ??_C@_0MN@BBNOFGBG@?$CIGu?3?3EdgeTriangleAC?3?3HasActiveE@ 10041160     TriangleMeshBuilder.obj
 0002:00002230       ??_C@_0BL@EFKFMMFJ@mMeshData?4mGRB_primIndices@ 10041230     TriangleMeshBuilder.obj
 0002:0000224c       ??_C@_0BL@DLEDFNFP@tempNormalsPerTri_prealloc@ 1004124c     TriangleMeshBuilder.obj
 0002:00002268       ??_C@_0BD@NDAFHHFF@GRB_triAdjacencies@ 10041268     TriangleMeshBuilder.obj
 0002:0000227c       ??_C@_0BF@LOHPHEEH@mMeshData?4mFaceRemap@ 1004127c     TriangleMeshBuilder.obj
 0002:00002294       ??_C@_0BO@FKDPIHHM@index?5?$DM?5originalTriangleCount@ 10041294     TriangleMeshBuilder.obj
 0002:000022b4       ??_C@_0DD@CMJGDCNN@TriangleMesh?3?3loadFromDesc?3?5des@ 100412b4     TriangleMeshBuilder.obj
 0002:000022e8       ??_C@_0ED@ILJJNHIP@TriangleMesh?3?3loadFromDesc?3?5mPa@ 100412e8     TriangleMeshBuilder.obj
 0002:0000232c       ??_C@_0CK@BJFFGDPK@input?5mesh?5contains?5corrupted?5v@ 1004132c     TriangleMeshBuilder.obj
 0002:00002358       ??_C@_0BF@DKJOKPOK@materials?$FLi?$FN?$CB?$DN0xffff@ 10041358     TriangleMeshBuilder.obj
 0002:00002370       ??_C@_0BJ@BKHDBBHO@cleaning?5the?5mesh?5failed@ 10041370     TriangleMeshBuilder.obj
 0002:0000238c       ??_C@_0BE@EBMJPKKK@m?4has16BitIndices?$CI?$CJ@ 1004138c     TriangleMeshBuilder.obj
 0002:000023a0       ??_C@_0BK@JIDHMMCE@BV4?5tree?5failed?5to?5build?4@ 100413a0     TriangleMeshBuilder.obj
 0002:000023bc       ??_C@_0DJ@MIBEECJD@?$CB?$CImeshData?4mFlags?5?$CG?5PxTriangleM@ 100413bc     TriangleMeshBuilder.obj
 0002:000023f8       ??_C@_0BL@DHNECNBE@BV32?5tree?5failed?5to?5build?4@ 100413f8     TriangleMeshBuilder.obj
 0002:00002414       ??_C@_0BN@IOHKHAPP@bv32Tree?9?$DOmNbPackedNodes?5?$DO?50@ 10041414     TriangleMeshBuilder.obj
 0002:00002434       ??_7RTreeCookerRemap@physx@@6B@ 10041434     TriangleMeshBuilder.obj
 0002:0000243c       ??_C@_0O@PPMFEIKF@leafCount?5?$DO?50@ 1004143c     TriangleMeshBuilder.obj
 0002:0000244c       ??_C@_0BA@ICGDMFLO@leafCount?5?$DM?$DN?516@ 1004144c     TriangleMeshBuilder.obj
 0002:0000245c       ??_C@_0BA@KGAJLAMO@start?5?$DM?5mNbTris@ 1004145c     TriangleMeshBuilder.obj
 0002:0000246c       ??_C@_0BL@MHKJAFOE@start?$CLleafCount?5?$DM?$DN?5mNbTris@ 1004146c     TriangleMeshBuilder.obj
 0002:00002488       ??_C@_03BALCFKBP@val@      10041488     TriangleMeshBuilder.obj
 0002:0000248c       ??_C@_0CP@NNHNDAFC@resultPermute?4size?$CI?$CJ?5?$DN?$DN?5mMeshDa@ 1004148c     TriangleMeshBuilder.obj
 0002:000024bc       __real@3951b717            100414bc     TriangleMeshBuilder.obj
 0002:000024c0       __real@48742400            100414c0     TriangleMeshBuilder.obj
 0002:000024f0       ??_C@_0EM@MKGOBNGD@C?3?2Proj?2PhysX?2physx?2source?2phys@ 100414f0     BigConvexDataBuilder.obj
 0002:0000253c       ??_C@_0BD@PGLLAGCI@BigConvexData?5data@ 1004153c     BigConvexDataBuilder.obj
 0002:00002550       ??_C@_0DB@BBDOGGPJ@mSVM?9?$DOmData?4mValencies?$FLData?$FLj?$FN?$FN@ 10041550     BigConvexDataBuilder.obj
 0002:00002588       ??_C@_0EC@HLPJABEO@mSVM?9?$DOmData?4mNbAdjVerts?5?$DN?$DN?5PxU3@ 10041588     BigConvexDataBuilder.obj
 0002:000025cc       ??_C@_0CA@DDINCBKD@offset?5?$DM?5mSVM?9?$DOmData?4mNbSamples@ 100415cc     BigConvexDataBuilder.obj
 0002:000025ec       ??_C@_0CB@LJJCNLLL@offset2?5?$DM?5mSVM?9?$DOmData?4mNbSample@ 100415ec     BigConvexDataBuilder.obj
 0002:00002630       ??_C@_0O@JELDCDGP@value?5?$DM?$DN?50xff@ 10041630     ConvexHullBuilder.obj
 0002:00002640       ??_C@_0EH@OCFCNLIK@C?3?2Proj?2PhysX?2physx?2source?2phys@ 10041640     ConvexHullBuilder.obj
 0002:00002688       ??_C@_0BD@KIEABJPI@mHull?9?$DOmNbPolygons@ 10041688     ConvexHullBuilder.obj
 0002:000026a0       ??_C@_0EJ@HMKCAPGI@C?3?2Proj?2PhysX?2physx?2source?2phys@ 100416a0     ConvexHullBuilder.obj
 0002:000026ec       ??_C@_07OKCKIPNN@indices@  100416ec     ConvexHullBuilder.obj
 0002:000026f4       ??_C@_05FEEIMKBD@verts@    100416f4     ConvexHullBuilder.obj
 0002:000026fc       ??_C@_0N@JMCJKPEF@hullPolygons@ 100416fc     ConvexHullBuilder.obj
 0002:0000270c       ??_C@_07FOEMFOKK@nbVerts@  1004170c     ConvexHullBuilder.obj
 0002:00002714       ??_C@_0L@FGGGCOIO@nbPolygons@ 10041714     ConvexHullBuilder.obj
 0002:00002720       ??_C@_0EB@DCEIFDGC@ConvexHullBuilder?3?3init?3?5convex@ 10041720     ConvexHullBuilder.obj
 0002:00002764       ??_C@_0BE@KOOOMNLC@Gu?3?3HullPolygonData@ 10041764     ConvexHullBuilder.obj
 0002:00002778       ??_C@_0M@OKHMOJHP@numVerts?$DO?$DN3@ 10041778     ConvexHullBuilder.obj
 0002:00002788       ??_C@_0FM@KICBLCBH@Gu?3?3ConvexMesh?3?3checkHullPolygo@ 10041788     ConvexHullBuilder.obj
 0002:000027e8       ??_C@_0GO@HBFIOGLL@Gu?3?3ConvexMesh?3?3checkHullPolygo@ 100417e8     ConvexHullBuilder.obj
 0002:00002858       ??_C@_0CC@KHGCOLNH@mHull?9?$DOmNbEdges?5?$DM?$CI?5?$CI1?5?$DM?$DM?515?$CJ?5?9?5@ 10041858     ConvexHullBuilder.obj
 0002:0000287c       ??_C@_0CB@DAIGCNKP@mHull?9?$DOmNbEdges?5?$DM?$CI?$CI1?5?$DM?$DM?515?$CJ?5?9?51@ 1004187c     ConvexHullBuilder.obj
 0002:000028a0       ??_C@_0BE@EJGGFHND@ConvexHullData?5data@ 100418a0     ConvexHullBuilder.obj
 0002:000028b4       ??_C@_0CN@FMCHMHF@?$CB?$CIsize_t?$CIdataHullVertices?$CJ?5?$CF?5si@ 100418b4     ConvexHullBuilder.obj
 0002:000028e4       ??_C@_0CP@PEBAMPKB@?$CB?$CIsize_t?$CIhullData?4mPolygons?$CJ?5?$CF?5@ 100418e4     ConvexHullBuilder.obj
 0002:00002914       ??_C@_0DE@PBHJOBNJ@size_t?$CIaddress?$CJ?5?$DM?$DN?5size_t?$CIdataM@ 10041914     ConvexHullBuilder.obj
 0002:00002948       ??_C@_0BG@MJLOHHDN@mHullDataHullVertices@ 10041948     ConvexHullBuilder.obj
 0002:00002960       ??_C@_0BC@JILNBNOE@mHullDataPolygons@ 10041960     ConvexHullBuilder.obj
 0002:00002974       ??_C@_0BF@MHHBBNAJ@mHullDataVertexData8@ 10041974     ConvexHullBuilder.obj
 0002:0000298c       ??_C@_0BH@KMEGFGPF@mHullDataFacesByEdges8@ 1004198c     ConvexHullBuilder.obj
 0002:000029a4       ??_C@_0BK@EOBPJLJJ@mHullDataFacesByVertices8@ 100419a4     ConvexHullBuilder.obj
 0002:000029c0       ??_C@_0HF@OLJFBIEL@ConvexHullBuilder?3?5convex?5hull?5@ 100419c0     ConvexHullBuilder.obj
 0002:00002a38       ??_C@_0OG@JNHFOIL@ConvexHullBuilder?3?5convex?5hull?5@ 10041a38     ConvexHullBuilder.obj
 0002:00002b20       ??_C@_0EJ@NIOIBAKH@Cooking?3?3cookConvexMesh?3?5non?9ma@ 10041b20     ConvexHullBuilder.obj
 0002:00002b6c       ??_C@_0CE@OELJDBDC@PxU32?$CIrun0?9vRefs0?$CJ?$DN?$DNnbEdgesUnsh@ 10041b6c     ConvexHullBuilder.obj
 0002:00002b90       ??_C@_0CE@OPFCBBDF@PxU32?$CIrun1?9vRefs1?$CJ?$DN?$DNnbEdgesUnsh@ 10041b90     ConvexHullBuilder.obj
 0002:00002bb4       __real@3ca3d70a            10041bb4     ConvexHullBuilder.obj
 0002:00002bb8       __real@3eaaaaab            10041bb8     ConvexHullBuilder.obj
 0002:00002bbc       ??_7ConvexHullLib@physx@@6B@ 10041bbc     ConvexHullLib.obj
 0002:00002bd0       ??_C@_0EF@OAADNJOB@C?3?2Proj?2PhysX?2physx?2source?2phys@ 10041bd0     ConvexHullLib.obj
 0002:00002c18       ??_C@_0DG@JCINKFOO@mConvexMeshDesc?4flags?5?$CG?5PxConve@ 10041c18     ConvexHullLib.obj
 0002:00002c50       ??_C@_0CA@ENKNMFDJ@indexBase?5?$DN?$DN?5desc?4indices?4count@ 10041c50     ConvexHullLib.obj
 0002:00002c70       __real@358637bd            10041c70     ConvexHullLib.obj
 0002:00002c74       __real@3d4ccccd            10041c74     ConvexHullLib.obj
 0002:00002ca0       ??_C@_1GG@GKMHNDHA@?$AAC?$AA?3?$AA?2?$AAP?$AAr?$AAo?$AAj?$AA?2?$AAP?$AAh?$AAy?$AAs?$AAX?$AA?2?$AAp@ 10041ca0     ConvexHullUtils.obj
 0002:00002d08       ??_C@_1FG@MGJMFNCP@?$AAP?$AAx?$AAA?$AAb?$AAs?$AA?$CI?$AA1?$AA?4?$AA0?$AAf?$AA?5?$AA?9?$AA?5?$AAu?$AAn@ 10041d08     ConvexHullUtils.obj
 0002:00002d60       ??_C@_1HA@BPJCIOOP@?$AAC?$AA?3?$AA?2?$AAP?$AAr?$AAo?$AAj?$AA?2?$AAP?$AAh?$AAy?$AAs?$AAX?$AA?2?$AAp@ 10041d60     ConvexHullUtils.obj
 0002:00002dd0       ??_C@_1BI@DIANAMGA@?$AAq?$AA0?$AA?4?$AAi?$AAs?$AAS?$AAa?$AAn?$AAe?$AA?$CI?$AA?$CJ@ 10041dd0     ConvexHullUtils.obj
 0002:00002de8       ??_C@_0BB@OOGJNGLK@isValidFloatV?$CIb?$CJ@ 10041de8     ConvexHullUtils.obj
 0002:00002dfc       ??_C@_0BB@OPKLLMIN@isValidFloatV?$CIc?$CJ@ 10041dfc     ConvexHullUtils.obj
 0002:00002e10       ??_C@_0BA@EPMPMLJI@isValidVec3V?$CIc?$CJ@ 10041e10     ConvexHullUtils.obj
 0002:00002e20       ??_C@_0EH@NDHKFDK@C?3?2Proj?2PhysX?2physx?2source?2phys@ 10041e20     ConvexHullUtils.obj
 0002:00002e68       ??_C@_06CNNCFCIO@vcount@   10041e68     ConvexHullUtils.obj
 0002:00002e70       ??_C@_0BP@BOGLBFED@mEdges?$FLinext?$FN?4p?5?$DN?$DN?5mEdges?$FLi?$FN?4p@ 10041e70     ConvexHullUtils.obj
 0002:00002e90       ??_C@_08BDJPPIKG@nb?5?$CB?$DN?5?91@ 10041e90     ConvexHullUtils.obj
 0002:00002e9c       ??_C@_0CB@CFEGKNLC@i?5?$DN?$DN?5PxU32?$CImEdges?$FLPxU32?$CInb?$CJ?$FN?4ea@ 10041e9c     ConvexHullUtils.obj
 0002:00002ec0       ??_C@_0CH@ICNMLFBK@mEdges?$FLPxU32?$CInb?$CJ?$FN?4v?5?$DN?$DN?5mEdges?$FLi@ 10041ec0     ConvexHullUtils.obj
 0002:00002ee8       ??_C@_0FM@BNLOICHG@local?3?3eCOPLANAR?5?$DN?$DN?5local?3?3plan@ 10041ee8     ConvexHullUtils.obj
 0002:00002f44       ??_C@_0BP@JDJHBJAJ@convex?4getEdges?$CI?$CJ?4size?$CI?$CJ?5?$DM?5480@ 10041f44     ConvexHullUtils.obj
 0002:00002f64       ??_C@_0DA@PGDOKAKB@tmpUnderEdges?$FLunderEdgeCount?$FN?4v@ 10041f64     ConvexHullUtils.obj
 0002:00002f94       ??_C@_0CM@NCLAMEIG@edgeFlag?$FLedge0?4ea?$FN?4undermap?5?$CB?$DN?5@ 10041f94     ConvexHullUtils.obj
 0002:00002fc0       ??_C@_0BF@KEHLOIPL@vout?5?$CB?$DN?5invalidIndex@ 10041fc0     ConvexHullUtils.obj
 0002:00002fd8       ??_C@_0BF@OKMJIKEK@vin?5?$DM?5vertCountUnder@ 10041fd8     ConvexHullUtils.obj
 0002:00002ff0       ??_C@_0CI@OACGEIKL@edgeFlag?$FLe0?$FN?4undermap?5?$DN?$DN?5underE@ 10041ff0     ConvexHullUtils.obj
 0002:00003018       ??_C@_0BE@ODINDNNF@vin?5?$CB?$DN?5invalidIndex@ 10042018     ConvexHullUtils.obj
 0002:0000302c       ??_C@_0BE@CEIFINGH@coplanarEdge?5?$CB?$DN?5511@ 1004202c     ConvexHullUtils.obj
 0002:00003040       ??_C@_0BJ@HIGNANEP@i?5?$DN?$DN?5createdVerts?4size?$CI?$CJ@ 10042040     ConvexHullUtils.obj
 0002:0000305c       ??_C@_04NCKNBPPK@PxU8@     1004205c     ConvexHullUtils.obj
 0002:00003064       ??_C@_05CDCIKCPI@Vec4V@    10042064     ConvexHullUtils.obj
 0002:0000306c       __real@00800000            1004206c     ConvexHullUtils.obj
 0002:00003070       __real@3c8efa35            10042070     ConvexHullUtils.obj
 0002:00003074       __real@40400000            10042074     ConvexHullUtils.obj
 0002:00003078       __real@41900000            10042078     ConvexHullUtils.obj
 0002:0000307c       __real@4e6e6b28            1004207c     ConvexHullUtils.obj
 0002:00003080       __real@bf000000            10042080     ConvexHullUtils.obj
 0002:000030b0       ??_C@_0DF@LLFJIJGM@Gu?3?3ConvexMesh?3?3loadFromDesc?3?5d@ 100420b0     ConvexMeshBuilder.obj
 0002:000030e8       ??_C@_0EJ@LCAGKPDN@C?3?2Proj?2PhysX?2physx?2source?2phys@ 100420e8     ConvexMeshBuilder.obj
 0002:00003138       ??_C@_0HK@JOGKIEAA@Gu?3?3ConvexMesh?3?5Mesh?5has?5a?5nega@ 10042138     ConvexMeshBuilder.obj
 0002:000031b4       ??_C@_0DH@NJPPHFFD@Gu?3?3ConvexMesh?3?5Error?5computing@ 100421b4     ConvexMeshBuilder.obj
 0002:000031ec       ??_C@_0DJ@LJDLGLDJ@Gu?3?3ConvexMesh?3?3loadConvexHull?3@ 100421ec     ConvexMeshBuilder.obj
 0002:00003228       ??_C@_0HJ@KJANPPOE@ConvexMeshBuilder?3?3computeHullP@ 10042228     ConvexMeshBuilder.obj
 0002:000032a4       ??_C@_0O@JMAGMMGG@PxHullPolygon@ 100422a4     ConvexMeshBuilder.obj
 0002:000032b8       ??_C@_0FN@IODHNLIE@indices?$FLoutPolygon?4mIndexBase?5?$CL@ 100422b8     ConvexMeshBuilder.obj
 0002:00003318       __real@33d6bf95            10042318     ConvexMeshBuilder.obj
 0002:0000331c       __real@b3d6bf95            1004231c     ConvexMeshBuilder.obj
 0002:00003320       __xmm@80000000000000008000000000000000 10042320     ConvexMeshBuilder.obj
 0002:00003330       ??_C@_0EN@FANPOGLA@C?3?2Proj?2PhysX?2physx?2source?2phys@ 10042330     ConvexPolygonsBuilder.obj
 0002:00003380       ??_C@_0P@BKHDFID@Copy?4size?$CI?$CJ?$DO?$DN2@ 10042380     ConvexPolygonsBuilder.obj
 0002:00003390       ??_C@_0P@CKIKGGEA@Copy?4size?$CI?$CJ?$DO?$DN1@ 10042390     ConvexPolygonsBuilder.obj
 0002:000033a0       ??_C@_0L@EHJBDJOI@nbVerts?$DO?$DN3@ 100423a0     ConvexPolygonsBuilder.obj
 0002:000033ac       ??_C@_0BB@KAJHDBOL@wFaces?5?$HM?$HM?5dFaces@ 100423ac     ConvexPolygonsBuilder.obj
 0002:000033c0       ??_C@_0BM@BGNOFOOP@entries?$FL0?$FN?5?$DN?$DN?5entries?$FLnb?91?$FN@ 100423c0     ConvexPolygonsBuilder.obj
 0002:000033dc       ??_C@_0DP@PJBJBEGF@Meshmerizer?3?3extractHullPolygon@ 100423dc     ConvexPolygonsBuilder.obj
 0002:0000341c       ??_C@_09PNPFALML@triangles@ 1004241c     ConvexPolygonsBuilder.obj
 0002:00003428       ??_C@_0BJ@CIDDLGFP@triangles?$FLi?$CK3?$CL0?$FN?$DM?$DN0xffff@ 10042428     ConvexPolygonsBuilder.obj
 0002:00003444       ??_C@_0BJ@OJLNGJJP@triangles?$FLi?$CK3?$CL1?$FN?$DM?$DN0xffff@ 10042444     ConvexPolygonsBuilder.obj
 0002:00003460       ??_C@_0BJ@HAFPAPJO@triangles?$FLi?$CK3?$CL2?$FN?$DM?$DN0xffff@ 10042460     ConvexPolygonsBuilder.obj
 0002:0000347c       ??_C@_0BA@OMHMECP@nbHullVerts?$DM256@ 1004247c     ConvexPolygonsBuilder.obj
 0002:0000348c       ??_C@_0BL@MFNKFFFN@Reduced?5vertices?5hull?5data@ 1004248c     ConvexPolygonsBuilder.obj
 0002:000034a8       ??_C@_0CK@GNGILODA@currentIndex?5?$DM?5numReducedHullDa@ 100424a8     ConvexPolygonsBuilder.obj
 0002:000034d4       ??_C@_0CB@EODAHBEL@data?$FLj?$FN?5?$DM?5mHull?9?$DOmNbHullVertice@ 100424d4     ConvexPolygonsBuilder.obj
 0002:000034f8       ??_C@_0DL@IAFKOCCK@ConvexHullBuilder?3?5convex?5hull?5@ 100424f8     ConvexPolygonsBuilder.obj
 0002:00003534       ??_C@_0BG@OHLOGHMG@triIndex?$DMmNbHullFaces@ 10042534     ConvexPolygonsBuilder.obj
 0002:0000354c       ??_C@_0DH@CAGLLON@mHullDataPolygons?$FLi?$FN?4mPlane?4dis@ 1004254c     ConvexPolygonsBuilder.obj
 0002:00003588       ??_C@_0GF@OJLJHAMH@ConvexHullBuilder?3?3CreateTriang@ 10042588     ConvexPolygonsBuilder.obj
 0002:000035f0       ??_C@_0BO@MMNNDACD@nbTriangles?5?$DM?$DN?5maxNbTriangles@ 100425f0     ConvexPolygonsBuilder.obj
 0002:00003610       ??_7QuickHullConvexHullLib@physx@@6B@ 10042610     QuickHullConvexHullLib.obj
 0002:00003620       ??_C@_0EO@CALAEHHO@C?3?2Proj?2PhysX?2physx?2source?2phys@ 10042620     QuickHullConvexHullLib.obj
 0002:00003670       ??_C@_04HPBPGAEO@twin@     10042670     QuickHullConvexHullLib.obj
 0002:00003678       ??_C@_04IJFJNCMM@edge@     10042678     QuickHullConvexHullLib.obj
 0002:00003680       ??_C@_09CKAEOABB@startEdge@ 10042680     QuickHullConvexHullLib.obj
 0002:0000368c       ??_C@_04POCOPAPC@face@     1004268c     QuickHullConvexHullLib.obj
 0002:00003694       ??_C@_0BH@KGKKNPGB@checkFaceConsistency?$CI?$CJ@ 10042694     QuickHullConvexHullLib.obj
 0002:000036ac       ??_C@_08FKPFFPGN@numv?5?$DO?52@ 100426ac     QuickHullConvexHullLib.obj
 0002:000036b8       ??_C@_0BB@NPIGJJFH@hedgeOpp?5?$CB?$DN?5NULL@ 100426b8     QuickHullConvexHullLib.obj
 0002:000036cc       ??_C@_0BI@NAILLODC@hedgeOpp?9?$DOtwin?5?$DN?$DN?5hedge@ 100426cc     QuickHullConvexHullLib.obj
 0002:000036e4       ??_C@_0BA@FPNCCKDI@oppFace?5?$CB?$DN?5NULL@ 100426e4     QuickHullConvexHullLib.obj
 0002:000036f4       ??_C@_0CK@HJJJCJME@oppFace?9?$DOstate?5?$CB?$DN?5QuickHullFace@ 100426f4     QuickHullConvexHullLib.obj
 0002:00003720       ??_C@_0BE@PPJFDAEE@hedge?9?$DOface?5?$DN?$DN?5this@ 10042720     QuickHullConvexHullLib.obj
 0002:00003734       ??_C@_0BA@IIKLDFLI@numVertices?5?$DO?50@ 10042734     QuickHullConvexHullLib.obj
 0002:00003744       ??_C@_0BA@BPKNMKIA@QuickHullVertex@ 10042744     QuickHullConvexHullLib.obj
 0002:00003754       ??_C@_0BJ@FCCFKLOA@numVerts?5?$DM?$DN?5mMaxVertices@ 10042754     QuickHullConvexHullLib.obj
 0002:00003770       ??_C@_0GA@EPPAEJPM@QuickHullConvexHullLib?3?3findSim@ 10042770     QuickHullConvexHullLib.obj
 0002:000037d0       ??_C@_0FB@NEBIJMML@QuickHullConvexHullLib?3?3findSim@ 100427d0     QuickHullConvexHullLib.obj
 0002:00003828       ??_C@_0FB@CLLCBEMM@QuickHullConvexHullLib?3?3findSim@ 10042828     QuickHullConvexHullLib.obj
 0002:0000387c       ??_C@_07DDJOPBBG@simplex@  1004287c     QuickHullConvexHullLib.obj
 0002:00003884       ??_C@_0BC@EMKMAMDK@face?4conflictList@ 10042884     QuickHullConvexHullLib.obj
 0002:00003898       ??_C@_0BM@MDABMKAO@face?4conflictList?5?$DN?$DN?5vertex@ 10042898     QuickHullConvexHullLib.obj
 0002:000038b4       ??_C@_0BM@KELCFLC@face?4checkFaceConsistency?$CI?$CJ@ 100428b4     QuickHullConvexHullLib.obj
 0002:000038d0       ??_C@_07CFCNFCEM@eyeFace@  100428d0     QuickHullConvexHullLib.obj
 0002:000038d8       ??_C@_06FPAPLEC@heTwin@    100428d8     QuickHullConvexHullLib.obj
 0002:000038e0       ??_C@_0L@EIPELJHI@mQuickHull@ 100428e0     QuickHullConvexHullLib.obj
 0002:000038ec       ??_C@_0CI@BFGCKDAG@face?4index?5?$DN?$DN?5expandPoint?4plane@ 100428ec     QuickHullConvexHullLib.obj
 0002:00003914       ??_C@_0CA@KDJNIAHF@c?9?$DOassertIntact?$CIplaneTolerance?$CJ@ 10042914     QuickHullConvexHullLib.obj
 0002:00003934       ??_C@_0CC@DCDPKPID@?$CKoutHullDataFacesByEdges8?5?$DN?$DN?5NU@ 10042934     QuickHullConvexHullLib.obj
 0002:00003958       ??_C@_0BC@EMEFDIJK@?$CKoutEdges?5?$DN?$DN?5NULL@ 10042958     QuickHullConvexHullLib.obj
 0002:0000396c       ??_C@_0BH@CPAKOOBA@?$CKoutEdgeData16?5?$DN?$DN?5NULL@ 1004296c     QuickHullConvexHullLib.obj
 0002:00003984       ??_C@_0CN@JGCPHPKN@face?4state?5?$DN?$DN?5local?3?3QuickHullF@ 10042984     QuickHullConvexHullLib.obj
 0002:000039b4       ??_C@_0P@OFIBMBPE@ConvexMeshDesc@ 100429b4     QuickHullConvexHullLib.obj
 0002:000039c4       ??_C@_0CJ@ICHEGJCB@mQuickHull?9?$DOmNumHullFaces?5?$DN?$DN?5nu@ 100429c4     QuickHullConvexHullLib.obj
 0002:000039f0       ??_C@_0BC@NAPMPBH@mCropedConvexHull@ 100429f0     QuickHullConvexHullLib.obj
 0002:00003a04       ??_C@_0CL@BEOIBIJC@k?5?$DN?$DN?5mCropedConvexHull?9?$DOgetFace@ 10042a04     QuickHullConvexHullLib.obj
 0002:00003a30       ??_C@_0BB@PMGJMJHA@mPreallocateSize@ 10042a30     QuickHullConvexHullLib.obj
 0002:00003a44       ??_C@_0BD@NDHBJDBB@Quickhull?5MemBlock@ 10042a44     QuickHullConvexHullLib.obj
 0002:00003a58       ??_C@_0BH@IGECNJKJ@block?5?$DM?$DN?5mCurrentBlock@ 10042a58     QuickHullConvexHullLib.obj
 0002:00003a70       ??_C@_0BN@MOAOIDAG@itemIndex?5?$DM?5mPreallocateSize@ 10042a70     QuickHullConvexHullLib.obj
 0002:00003a90       ??_C@_0BA@KPFJPMPJ@preallocateSize@ 10042a90     QuickHullConvexHullLib.obj
 0002:00003aa0       __real@34c00000            10042aa0     QuickHullConvexHullLib.obj
 0002:00003aa4       __real@40800000            10042aa4     QuickHullConvexHullLib.obj
 0002:00003ad0       ??_C@_0EJ@OFHNMHLE@C?3?2Proj?2PhysX?2physx?2source?2phys@ 10042ad0     VolumeIntegration.obj
 0002:00003b1c       ??_C@_0M@JAODDECG@nbVerts?5?$DO?52@ 10042b1c     VolumeIntegration.obj
 0002:00003b28       __real@0000000000000000    10042b28     VolumeIntegration.obj
 0002:00003b30       __real@3c088889            10042b30     VolumeIntegration.obj
 0002:00003b34       __real@3c888889            10042b34     VolumeIntegration.obj
 0002:00003b38       __real@3d2aaaab            10042b38     VolumeIntegration.obj
 0002:00003b3c       __real@3e2aaaab            10042b3c     VolumeIntegration.obj
 0002:00003b40       __real@3f81111111111111    10042b40     VolumeIntegration.obj
 0002:00003b48       __real@3f91111111111111    10042b48     VolumeIntegration.obj
 0002:00003b50       __real@3fa5555555555555    10042b50     VolumeIntegration.obj
 0002:00003b58       __real@3fc5555555555555    10042b58     VolumeIntegration.obj
 0002:00003b60       __real@3ff0000000000000    10042b60     VolumeIntegration.obj
 0002:00003b68       __real@4000000000000000    10042b68     VolumeIntegration.obj
 0002:00003b70       __real@4008000000000000    10042b70     VolumeIntegration.obj
 0002:00003b78       __real@4010000000000000    10042b78     VolumeIntegration.obj
 0002:00003b80       __real@4018000000000000    10042b80     VolumeIntegration.obj
 0002:00003b88       __real@4028000000000000    10042b88     VolumeIntegration.obj
 0002:00003b90       __real@4034000000000000    10042b90     VolumeIntegration.obj
 0002:00003b98       __real@4038000000000000    10042b98     VolumeIntegration.obj
 0002:00003ba0       __real@404e000000000000    10042ba0     VolumeIntegration.obj
 0002:00003ba8       __real@c018000000000000    10042ba8     VolumeIntegration.obj
 0002:00003bb0       __real@c028000000000000    10042bb0     VolumeIntegration.obj
 0002:00003bb8       __real@c034000000000000    10042bb8     VolumeIntegration.obj
 0002:00003bc0       __real@c04e000000000000    10042bc0     VolumeIntegration.obj
 0002:00003bc8       ??_C@_0BA@EGLNOO@PhysXFoundation@ 10042bc8     WindowsCookingDelayLoadHook.obj
 0002:00003bd8       ??_C@_0M@ILKNCJKN@PhysXCommon@ 10042bd8     WindowsCookingDelayLoadHook.obj
 0002:00003bf0       __sz_PhysXCommon_32_dll    10042bf0     PhysXCommon_32:PhysXCommon_32.dll
 0002:00003c10       __sz_PhysXFoundation_32_dll 10042c10     PhysXFoundation_32:PhysXFoundation_32.dll
 0002:00003c28       ??_C@_1BK@DBDEIDLH@?$AAK?$AAE?$AAR?$AAN?$AAE?$AAL?$AA3?$AA2?$AA?4?$AAD?$AAL?$AAL@ 10042c28     Delayimp:delayhlp.obj
 0002:00003c44       ??_C@_0BI@OMNLIJDB@AcquireSRWLockExclusive@ 10042c44     Delayimp:delayhlp.obj
 0002:00003c5c       ??_C@_0BI@HMIEPCNJ@ReleaseSRWLockExclusive@ 10042c5c     Delayimp:delayhlp.obj
 0002:00003c74       ___pfnDliFailureHook2      10042c74     Delayimp:delayhk1.obj
 0002:00003c7c       ??_7type_info@@6B@         10042c7c     MSVCRTD:std_type_info_static.obj
 0002:00003c98       __pDefaultRawDllMain       10042c98     MSVCRTD:dll_dllmain.obj
 0002:00003c98       __pRawDllMain              10042c98     MSVCRTD:dll_dllmain.obj
 0002:00003ca0       __load_config_used         10042ca0     MSVCRTD:loadcfg.obj
 0002:00003d58       ??_C@_0BJ@HEGAHDFO@Stack?5pointer?5corruption@ 10042d58     MSVCRTD:userapi.obj
 0002:00003d74       ??_C@_0CK@FEGOIOPB@Cast?5to?5smaller?5type?5causing?5lo@ 10042d74     MSVCRTD:userapi.obj
 0002:00003da0       ??_C@_0BI@CIGMDCBH@Stack?5memory?5corruption@ 10042da0     MSVCRTD:userapi.obj
 0002:00003db8       ??_C@_0CK@CNLNOEPB@Local?5variable?5used?5before?5init@ 10042db8     MSVCRTD:userapi.obj
 0002:00003de4       ??_C@_0BP@OGBCLIBO@Stack?5around?5_alloca?5corrupted@ 10042de4     MSVCRTD:userapi.obj
 0002:00003ea0       ??_C@_0NN@NGPKDKPD@The?5value?5of?5ESP?5was?5not?5proper@ 10042ea0     MSVCRTD:error.obj
 0002:00003f80       ??_C@_0BBN@GPMLNJCF@A?5cast?5to?5a?5smaller?5data?5type?5h@ 10042f80     MSVCRTD:error.obj
 0002:000040a0       ??_C@_0BN@FFOINMNJ@Stack?5memory?5was?5corrupted?6?$AN@ 100430a0     MSVCRTD:error.obj
 0002:000040c0       ??_C@_0DG@HKJMLLLP@A?5local?5variable?5was?5used?5befor@ 100430c0     MSVCRTD:error.obj
 0002:000040f8       ??_C@_0CM@NGINOKPC@Stack?5memory?5around?5_alloca?5was@ 100430f8     MSVCRTD:error.obj
 0002:00004124       ??_C@_0BO@GNIAFIKK@Unknown?5Runtime?5Check?5Error?6?$AN@ 10043124     MSVCRTD:error.obj
 0002:00004148       ??_C@_1GM@OLMCBDMB@?$AAR?$AAu?$AAn?$AAt?$AAi?$AAm?$AAe?$AA?5?$AAC?$AAh?$AAe?$AAc?$AAk?$AA?5?$AAE@ 10043148     MSVCRTD:error.obj
 0002:000041b8       ??_C@_1EA@NFKNIFJP@?$AAR?$AAu?$AAn?$AA?9?$AAT?$AAi?$AAm?$AAe?$AA?5?$AAC?$AAh?$AAe?$AAc?$AAk?$AA?5@ 100431b8     MSVCRTD:error.obj
 0002:000041f8       ??_C@_0BB@PFFGGCJP@Unknown?5Filename@ 100431f8     MSVCRTD:error.obj
 0002:0000420c       ??_C@_0BE@GNBOBNCK@Unknown?5Module?5Name@ 1004320c     MSVCRTD:error.obj
 0002:00004220       ??_C@_0CA@IODNCDPG@Run?9Time?5Check?5Failure?5?$CD?$CFd?5?9?5?$CFs@ 10043220     MSVCRTD:error.obj
 0002:00004240       ??_C@_0CG@IAFNJNEE@Stack?5corrupted?5near?5unknown?5va@ 10043240     MSVCRTD:error.obj
 0002:00004268       ??_C@_05MKKEDADM@?$CF?42X?5@ 10043268     MSVCRTD:error.obj
 0002:00004270       ??_C@_0EJ@LJKNEOLN@Stack?5area?5around?5_alloca?5memor@ 10043270     MSVCRTD:error.obj
 0002:000042bc       ??_C@_01EEMJAFIK@?6@       100432bc     MSVCRTD:error.obj
 0002:000042c0       ??_C@_02LLMPMKNF@?$DO?5@   100432c0     MSVCRTD:error.obj
 0002:000042c4       ??_C@_08OMAHNMHJ@?6Data?3?5?$DM@ 100432c4     MSVCRTD:error.obj
 0002:000042d0       ??_C@_0CK@DKGBICFE@?6Allocation?5number?5within?5this?5@ 100432d0     MSVCRTD:error.obj
 0002:000042fc       ??_C@_07DFDJCKFN@?6Size?3?5@ 100432fc     MSVCRTD:error.obj
 0002:00004304       ??_C@_0N@MHFFIMFG@?6Address?3?50x@ 10043304     MSVCRTD:error.obj
 0002:00004318       ??_C@_0EI@CLEPFNGI@Stack?5area?5around?5_alloca?5memor@ 10043318     MSVCRTD:error.obj
 0002:00004360       ??_C@_0BK@ODNDAGKB@?$CFs?$CFs?$CFp?$CFs?$CFzd?$CFs?$CFd?$CFs?$CFs?$CFs?$CFs?$CFs@ 10043360     MSVCRTD:error.obj
 0002:0000437c       ??_C@_0DE@OHJBPMBP@A?5variable?5is?5being?5used?5withou@ 1004337c     MSVCRTD:error.obj
 0002:000043f8       ??_C@_1EI@MLPKHBGE@?$AAa?$AAp?$AAi?$AA?9?$AAm?$AAs?$AA?9?$AAw?$AAi?$AAn?$AA?9?$AAc?$AAo?$AAr?$AAe@ 100433f8     MSVCRTD:pdblkup.obj
 0002:00004440       ??_C@_1BK@JHLNAEJL@?$AAa?$AAd?$AAv?$AAa?$AAp?$AAi?$AA3?$AA2?$AA?4?$AAd?$AAl?$AAl@ 10043440     MSVCRTD:pdblkup.obj
 0002:0000445c       ??_C@_0O@COHOBMLB@RegOpenKeyExW@ 1004345c     MSVCRTD:pdblkup.obj
 0002:0000446c       ??_C@_0BB@GLNAEDBD@RegQueryValueExW@ 1004346c     MSVCRTD:pdblkup.obj
 0002:00004480       ??_C@_0M@HLOHPNFA@RegCloseKey@ 10043480     MSVCRTD:pdblkup.obj
 0002:00004490       ??_C@_1HE@EBEAGLFB@?$AAS?$AAO?$AAF?$AAT?$AAW?$AAA?$AAR?$AAE?$AA?2?$AAW?$AAo?$AAw?$AA6?$AA4?$AA3@ 10043490     MSVCRTD:pdblkup.obj
 0002:00004504       ??_C@_1BG@EABPBLLF@?$AAP?$AAr?$AAo?$AAd?$AAu?$AAc?$AAt?$AAD?$AAi?$AAr@ 10043504     MSVCRTD:pdblkup.obj
 0002:00004538       ??_C@_1BC@JINFINNJ@?$AAM?$AAS?$AAP?$AAD?$AAB?$AA1?$AA4?$AA0@ 10043538     MSVCRTD:pdblkup.obj
 0002:0000454c       ??_C@_0BB@KCIACLNC@PDBOpenValidate5@ 1004354c     MSVCRTD:pdblkup.obj
 0002:00004560       ??_C@_01KDCPPGHE@r@        10043560     MSVCRTD:pdblkup.obj
 0002:000045c4       ??_R4type_info@@6B@        100435c4     MSVCRTD:std_type_info_static.obj
 0002:000045d8       ??_R3type_info@@8          100435d8     MSVCRTD:std_type_info_static.obj
 0002:000045e8       ??_R2type_info@@8          100435e8     MSVCRTD:std_type_info_static.obj
 0002:000045f0       ??_R1A@?0A@EA@type_info@@8 100435f0     MSVCRTD:std_type_info_static.obj
 0002:00004610       ___safe_se_handler_table   10043610     <linker-defined>
 0002:000049a0       ___rtc_iaa                 100439a0     MSVCRTD:initsect.obj
 0002:000049f4       ___rtc_izz                 100439f4     MSVCRTD:initsect.obj
 0002:000049f8       ___rtc_taa                 100439f8     MSVCRTD:initsect.obj
 0002:00004a4c       ___rtc_tzz                 10043a4c     MSVCRTD:initsect.obj
 0002:00004aec       __DELAY_IMPORT_DESCRIPTOR_PhysXCommon_32_dll 10043aec     PhysXCommon_32:PhysXCommon_32.dll
 0002:00004b0c       __DELAY_IMPORT_DESCRIPTOR_PhysXFoundation_32_dll 10043b0c     PhysXFoundation_32:PhysXFoundation_32.dll
 0002:00004b2c       __NULL_DELAY_IMPORT_DESCRIPTOR 10043b2c     PhysXCommon_32:PhysXCommon_32.dll
 0002:00004c10       \177PhysXCommon_32_NULL_THUNK_DATA_DLN 10043c10     PhysXCommon_32:PhysXCommon_32.dll
 0002:00004c58       \177PhysXFoundation_32_NULL_THUNK_DATA_DLN 10043c58     PhysXFoundation_32:PhysXFoundation_32.dll
 0002:0000595c       \177PhysXCommon_32_NULL_THUNK_DATA_DLB 1004495c     PhysXCommon_32:PhysXCommon_32.dll
 0002:00005a24       \177PhysXFoundation_32_NULL_THUNK_DATA_DLB 10044a24     PhysXFoundation_32:PhysXFoundation_32.dll
 0002:00007728       __IMPORT_DESCRIPTOR_KERNEL32 10046728     kernel32:KERNEL32.dll
 0002:0000773c       __IMPORT_DESCRIPTOR_VCRUNTIME140D 1004673c     vcruntimed:VCRUNTIME140D.dll
 0002:00007750       __IMPORT_DESCRIPTOR_ucrtbased 10046750     ucrtd:ucrtbased.dll
 0002:00007764       __NULL_IMPORT_DESCRIPTOR   10046764     kernel32:KERNEL32.dll
 0003:00000000       ___pfnDliNotifyHook2       10047000     WindowsCookingDelayLoadHook.obj
 0003:00000004       __fltused                  10047004     MSVCRTD:fltused.obj
 0003:00000010       ___scrt_native_dllmain_reason 10047010     MSVCRTD:utility.obj
 0003:00000014       ___security_cookie_complement 10047014     MSVCRTD:gs_cookie.obj
 0003:00000018       ___security_cookie         10047018     MSVCRTD:gs_cookie.obj
 0003:0000001c       ?_RTC_ErrorLevels@@3PAHA   1004701c     MSVCRTD:error.obj
 0003:00000030       ___isa_enabled             10047030     MSVCRTD:cpu_disp.obj
 0003:00000034       ___scrt_ucrt_dll_is_in_use 10047034     MSVCRTD:ucrt_stubs.obj
 0003:00000038       ??_R0?AVAdjEdge@@@8        10047038     Adjacencies.obj
 0003:00000050       ??_R0I@8                   10047050     Adjacencies.obj
 0003:0000005c       ??_R0?AVAdjTriangle@physx@@@8 1004705c     Adjacencies.obj
 0003:0000007c       ??_R0?AVHeightField@Gu@physx@@@8 1004707c     Cooking.obj
 0003:000000a0       ??_R0?AVCooking@physx@@@8  100470a0     Cooking.obj
 0003:000000bc       ??_R0?AVQuickHullConvexHullLib@physx@@@8 100470bc     Cooking.obj
 0003:000000e8       ??_R0M@8                   100470e8     CookingUtils.obj
 0003:000000f4       ??_R0?AUEdgeData@Gu@physx@@@8 100470f4     EdgeList.obj
 0003:00000114       ??_R0?AUEdgeTriangleData@Gu@physx@@@8 10047114     EdgeList.obj
 0003:0000013c       ??_R0?AVQuantizerImpl@@@8  1004713c     Quantizer.obj
 0003:00000158       ??_R0?AVEdgeListBuilder@Gu@physx@@@8 10047158     TriangleMeshBuilder.obj
 0003:00000180       ??_R0?AVBV32Tree@Gu@physx@@@8 10047180     TriangleMeshBuilder.obj
 0003:000001a0       ??_R0E@8                   100471a0     TriangleMeshBuilder.obj
 0003:000001ac       ??_R0G@8                   100471ac     TriangleMeshBuilder.obj
 0003:000001b8       ??_R0?AUEdgeDescData@Gu@physx@@@8 100471b8     ConvexHullBuilder.obj
 0003:000001dc       ??_R0_N@8                  100471dc     ConvexHullBuilder.obj
 0003:000001e8       ??_R0?AVConvexHull@physx@@@8 100471e8     ConvexHullUtils.obj
 0003:00000208       ??_R0?AVBigConvexData@physx@@@8 10047208     ConvexMeshBuilder.obj
 0003:0000022c       ??_R0?AUHullTriangleData@physx@@@8 1004722c     ConvexPolygonsBuilder.obj
 0003:00000254       ??_R0?AVQuickHull@local@@@8 10047254     QuickHullConvexHullLib.obj
 0003:00000274       ??_R0?AVtype_info@@@8      10047274     MSVCRTD:std_type_info_static.obj
 0003:0000028c       __imp_??0RadixSortBuffered@Cm@physx@@QAE@XZ 1004728c     PhysXCommon_32:PhysXCommon_32.dll
 0003:00000290       __imp_??1BigConvexData@physx@@QAE@XZ 10047290     PhysXCommon_32:PhysXCommon_32.dll
 0003:00000294       __imp_??1RadixSortBuffered@Cm@physx@@UAE@XZ 10047294     PhysXCommon_32:PhysXCommon_32.dll
 0003:00000298       __imp_?Sort@RadixSortBuffered@Cm@physx@@QAEAAV123@PBIIW4RadixHint@23@@Z 10047298     PhysXCommon_32:PhysXCommon_32.dll
 0003:0000029c       __imp_?readDword@physx@@YAI_NAAVPxInputStream@1@@Z 1004729c     PhysXCommon_32:PhysXCommon_32.dll
 0003:000002a0       __imp_?ReadHeader@Gu@physx@@YA_NEEEEAAIAA_NAAVPxInputStream@2@@Z 100472a0     PhysXCommon_32:PhysXCommon_32.dll
 0003:000002a4       __imp_?exportExtraData@ConvexMesh@Gu@physx@@UAEXAAVPxSerializationContext@3@@Z 100472a4     PhysXCommon_32:PhysXCommon_32.dll
 0003:000002a8       __imp_?onRefCountZero@ConvexMesh@Gu@physx@@UAEXXZ 100472a8     PhysXCommon_32:PhysXCommon_32.dll
 0003:000002ac       __imp_?release@ConvexMesh@Gu@physx@@UAEXXZ 100472ac     PhysXCommon_32:PhysXCommon_32.dll
 0003:000002b0       __imp_?getPolygonData@ConvexMesh@Gu@physx@@UBE_NIAAUPxHullPolygon@3@@Z 100472b0     PhysXCommon_32:PhysXCommon_32.dll
 0003:000002b4       __imp_?isGpuCompatible@ConvexMesh@Gu@physx@@UBE_NXZ 100472b4     PhysXCommon_32:PhysXCommon_32.dll
 0003:000002b8       __imp_?getReferenceCount@ConvexMesh@Gu@physx@@UBEIXZ 100472b8     PhysXCommon_32:PhysXCommon_32.dll
 0003:000002bc       __imp_?acquireReference@ConvexMesh@Gu@physx@@UAEXXZ 100472bc     PhysXCommon_32:PhysXCommon_32.dll
 0003:000002c0       __imp_?getMassInformation@ConvexMesh@Gu@physx@@UBEXAAMAAVPxMat33@3@AAVPxVec3@3@@Z 100472c0     PhysXCommon_32:PhysXCommon_32.dll
 0003:000002c4       __imp_?getLocalBounds@ConvexMesh@Gu@physx@@UBE?AVPxBounds3@3@XZ 100472c4     PhysXCommon_32:PhysXCommon_32.dll
 0003:000002c8       __imp_??1ConvexMesh@Gu@physx@@UAE@XZ 100472c8     PhysXCommon_32:PhysXCommon_32.dll
 0003:000002cc       __imp_??0HeightField@Gu@physx@@QAE@PAVGuMeshFactory@2@@Z 100472cc     PhysXCommon_32:PhysXCommon_32.dll
 0003:000002d0       __imp_?loadFromDesc@HeightField@Gu@physx@@QAE_NABVPxHeightFieldDesc@3@@Z 100472d0     PhysXCommon_32:PhysXCommon_32.dll
 0003:000002d4       __imp_?computeCellCoordinates@HeightField@Gu@physx@@QBEIMMAAM0@Z 100472d4     PhysXCommon_32:PhysXCommon_32.dll
 0003:000002d8       __imp_?releaseMemory@HeightField@Gu@physx@@QAEXXZ 100472d8     PhysXCommon_32:PhysXCommon_32.dll
 0003:000002dc       __imp_??1HeightField@Gu@physx@@UAE@XZ 100472dc     PhysXCommon_32:PhysXCommon_32.dll
 0003:000002e0       __imp_??0NodeAllocator@Gu@physx@@QAE@XZ 100472e0     PhysXCommon_32:PhysXCommon_32.dll
 0003:000002e4       __imp_??1NodeAllocator@Gu@physx@@QAE@XZ 100472e4     PhysXCommon_32:PhysXCommon_32.dll
 0003:000002e8       __imp_?release@NodeAllocator@Gu@physx@@QAEXXZ 100472e8     PhysXCommon_32:PhysXCommon_32.dll
 0003:000002ec       __imp_?buildAABBTree@Gu@physx@@YA_NAAVAABBTreeBuildParams@12@AAVNodeAllocator@12@AAUBuildStats@12@AAPAI@Z 100472ec     PhysXCommon_32:PhysXCommon_32.dll
 0003:000002f0       __imp_?writeDword@physx@@YAXI_NAAVPxOutputStream@1@@Z 100472f0     PhysXCommon_32:PhysXCommon_32.dll
 0003:000002f4       __imp_?writeFloatBuffer@physx@@YAXPBMI_NAAVPxOutputStream@1@@Z 100472f4     PhysXCommon_32:PhysXCommon_32.dll
 0003:000002f8       __imp_?writeHeader@physx@@YA_NCCCCI_NAAVPxOutputStream@1@@Z 100472f8     PhysXCommon_32:PhysXCommon_32.dll
 0003:000002fc       __imp_?writeWord@physx@@YAXG_NAAVPxOutputStream@1@@Z 100472fc     PhysXCommon_32:PhysXCommon_32.dll
 0003:00000300       __imp_?writeFloat@physx@@YAXM_NAAVPxOutputStream@1@@Z 10047300     PhysXCommon_32:PhysXCommon_32.dll
 0003:00000304       __imp_?validate@RTree@Gu@physx@@QAEXPAUCallbackRefit@123@@Z 10047304     PhysXCommon_32:PhysXCommon_32.dll
 0003:00000308       __imp_?computeBoundsAroundVertices@Gu@physx@@YAXAAVPxBounds3@2@IPIBVPxVec3@2@@Z 10047308     PhysXCommon_32:PhysXCommon_32.dll
 0003:0000030c       __imp_??0SourceMesh@Gu@physx@@QAE@XZ 1004730c     PhysXCommon_32:PhysXCommon_32.dll
 0003:00000310       __imp_??1SourceMesh@Gu@physx@@QAE@XZ 10047310     PhysXCommon_32:PhysXCommon_32.dll
 0003:00000314       __imp_??0BV4Tree@Gu@physx@@QAE@XZ 10047314     PhysXCommon_32:PhysXCommon_32.dll
 0003:00000318       __imp_??1BV4Tree@Gu@physx@@QAE@XZ 10047318     PhysXCommon_32:PhysXCommon_32.dll
 0003:0000031c       __imp_??0BV32Tree@Gu@physx@@QAE@XZ 1004731c     PhysXCommon_32:PhysXCommon_32.dll
 0003:00000320       __imp_??1BV32Tree@Gu@physx@@QAE@XZ 10047320     PhysXCommon_32:PhysXCommon_32.dll
 0003:00000324       __imp_?writeWordBuffer@physx@@YAXPBGI_NAAVPxOutputStream@1@@Z 10047324     PhysXCommon_32:PhysXCommon_32.dll
 0003:00000328       __imp_?computeMaxIndex@physx@@YAIPBII@Z 10047328     PhysXCommon_32:PhysXCommon_32.dll
 0003:0000032c       __imp_?storeIndices@physx@@YAXIIPBIAAVPxOutputStream@1@_N@Z 1004732c     PhysXCommon_32:PhysXCommon_32.dll
 0003:00000330       __imp_?BuildBV4Ex@Gu@physx@@YA_NAAVBV4Tree@12@AAVSourceMesh@12@MI@Z 10047330     PhysXCommon_32:PhysXCommon_32.dll
 0003:00000334       __imp_?BuildBV32Ex@Gu@physx@@YA_NAAVBV32Tree@12@AAVSourceMesh@12@MI@Z 10047334     PhysXCommon_32:PhysXCommon_32.dll
 0003:00000338       __imp_?computeMaxIndex@physx@@YAGPBGI@Z 10047338     PhysXCommon_32:PhysXCommon_32.dll
 0003:0000033c       __imp_?WriteHeader@Gu@physx@@YA_NEEEEI_NAAVPxOutputStream@2@@Z 1004733c     PhysXCommon_32:PhysXCommon_32.dll
 0003:00000340       __imp_?StoreIndices@Gu@physx@@YAXGIPBGAAVPxOutputStream@2@_N@Z 10047340     PhysXCommon_32:PhysXCommon_32.dll
 0003:00000344       __imp_?CreateOffsets@BigConvexData@physx@@IAEXXZ 10047344     PhysXCommon_32:PhysXCommon_32.dll
 0003:00000348       __imp_?computeOBBPoints@Gu@physx@@YAXPIAVPxVec3@2@ABV32@1111@Z 10047348     PhysXCommon_32:PhysXCommon_32.dll
 0003:0000034c       __imp_??0BigConvexData@physx@@QAE@XZ 1004734c     PhysXCommon_32:PhysXCommon_32.dll
 0003:00000350       \177PhysXCommon_32_NULL_THUNK_DATA_DLA 10047350     PhysXCommon_32:PhysXCommon_32.dll
 0003:00000354       __imp_?PxGetAssertHandler@physx@@YAAAVPxAssertHandler@1@XZ 10047354     PhysXFoundation_32:PhysXFoundation_32.dll
 0003:00000358       __imp_?deallocate@TempAllocator@shdfnd@physx@@QAEXPAX@Z 10047358     PhysXFoundation_32:PhysXFoundation_32.dll
 0003:0000035c       __imp__PxGetFoundation     1004735c     PhysXFoundation_32:PhysXFoundation_32.dll
 0003:00000360       __imp_?getAllocator@shdfnd@physx@@YAAAVPxAllocatorCallback@2@XZ 10047360     PhysXFoundation_32:PhysXFoundation_32.dll
 0003:00000364       __imp_??0NamedAllocator@shdfnd@physx@@QAE@PBD@Z 10047364     PhysXFoundation_32:PhysXFoundation_32.dll
 0003:00000368       __imp_?getInstance@Foundation@shdfnd@physx@@SAAAV123@XZ 10047368     PhysXFoundation_32:PhysXFoundation_32.dll
 0003:0000036c       __imp_?error@Foundation@shdfnd@physx@@QAAXW4Enum@PxErrorCode@3@PBDH1ZZ 1004736c     PhysXFoundation_32:PhysXFoundation_32.dll
 0003:00000370       __imp_?allocate@NamedAllocator@shdfnd@physx@@QAEPAXIPBDH@Z 10047370     PhysXFoundation_32:PhysXFoundation_32.dll
 0003:00000374       __imp_?deallocate@NamedAllocator@shdfnd@physx@@QAEXPAX@Z 10047374     PhysXFoundation_32:PhysXFoundation_32.dll
 0003:00000378       __imp_?incRefCount@Foundation@shdfnd@physx@@SAXXZ 10047378     PhysXFoundation_32:PhysXFoundation_32.dll
 0003:0000037c       __imp_?decRefCount@Foundation@shdfnd@physx@@SAXXZ 1004737c     PhysXFoundation_32:PhysXFoundation_32.dll
 0003:00000380       __imp_??0FPUGuard@shdfnd@physx@@QAE@XZ 10047380     PhysXFoundation_32:PhysXFoundation_32.dll
 0003:00000384       __imp_??1FPUGuard@shdfnd@physx@@QAE@XZ 10047384     PhysXFoundation_32:PhysXFoundation_32.dll
 0003:00000388       __imp_??1NamedAllocator@shdfnd@physx@@QAE@XZ 10047388     PhysXFoundation_32:PhysXFoundation_32.dll
 0003:0000038c       __imp_??0NamedAllocator@shdfnd@physx@@QAE@ABV012@@Z 1004738c     PhysXFoundation_32:PhysXFoundation_32.dll
 0003:00000390       __imp_?allocate@TempAllocator@shdfnd@physx@@QAEPAXIPBDH@Z 10047390     PhysXFoundation_32:PhysXFoundation_32.dll
 0003:00000394       __imp_?PxDiagonalize@physx@@YA?AVPxVec3@1@ABVPxMat33@1@AAVPxQuat@1@@Z 10047394     PhysXFoundation_32:PhysXFoundation_32.dll
 0003:00000398       \177PhysXFoundation_32_NULL_THUNK_DATA_DLA 10047398     PhysXFoundation_32:PhysXFoundation_32.dll
 0003:00000410       ?_ignore@?2???0RefCountable@Cm@physx@@QAE@W4PxEMPTY@3@@Z@4_NA 10047410     Cooking.obj
 0003:00000411       ?_ignore@?2??getSample@HeightField@Gu@physx@@QBEABUPxHeightFieldSample@4@I@Z@4_NA 10047411     Cooking.obj
 0003:00000414       ?_ignore@?2??forceSize_Unsafe@?$Array@UPxDebugLine@physx@@VNamedAllocator@shdfnd@2@@shdfnd@physx@@QAEXI@Z@4_NA 10047414     Cooking.obj
 0003:00000415       ?_ignore@?2??grow@?$Array@UPxDebugLine@physx@@VNamedAllocator@shdfnd@2@@shdfnd@physx@@IAEXI@Z@4_NA 10047415     Cooking.obj
 0003:00000416       ?_ignore@?2??recreate@?$Array@UPxDebugLine@physx@@VNamedAllocator@shdfnd@2@@shdfnd@physx@@IAEXI@Z@4_NA 10047416     Cooking.obj
 0003:00000420       ?_ignore@?2???A?$Array@VPxVec3@physx@@VNamedAllocator@shdfnd@2@@shdfnd@physx@@QAEAAVPxVec3@3@I@Z@4_NA 10047420     Quantizer.obj
 0003:00000421       ?_ignore@?P@???$kmeans_cluster@VPxVec3@physx@@M@@YAIPBVPxVec3@physx@@IIPAV12@PAIMM@Z@4_NA 10047421     Quantizer.obj
 0003:00000422       ?_ignore@?2??growAndPushBack@?$Array@VPxVec3@physx@@VNamedAllocator@shdfnd@2@@shdfnd@physx@@IAEAAVPxVec3@4@ABV54@@Z@4_NA 10047422     Quantizer.obj
 0003:00000490       ?_ignore@?2??V4StoreA@aos@shdfnd@physx@@YAXT__m128@@PAM@Z@4_NA 10047490     BVHStructureBuilder.obj
 0003:00000496       ?_ignore@?2???A?$Array@USlab@NodeAllocator@Gu@physx@@VNamedAllocator@shdfnd@4@@shdfnd@physx@@QBEABUSlab@NodeAllocator@Gu@3@I@Z@4_NA 10047496     BVHStructureBuilder.obj
 0003:00000497       ?_ignore@?2??grow@?$Array@USlab@NodeAllocator@Gu@physx@@VNamedAllocator@shdfnd@4@@shdfnd@physx@@IAEXI@Z@4_NA 10047497     BVHStructureBuilder.obj
 0003:00000498       ?_ignore@?2??recreate@?$Array@USlab@NodeAllocator@Gu@physx@@VNamedAllocator@shdfnd@4@@shdfnd@physx@@IAEXI@Z@4_NA 10047498     BVHStructureBuilder.obj
 0003:00000500       ?_ignore@?2??FStore@aos@shdfnd@physx@@YAXT__m128@@PIAM@Z@4_NA 10047500     RTreeCooking.obj
 0003:00000501       ?_ignore@?2??V3StoreA@aos@shdfnd@physx@@YAXT__m128@@AAVPxVec3@4@@Z@4_NA 10047501     RTreeCooking.obj
 0003:00000502       ?_ignore@?2??V3Splat@aos@shdfnd@physx@@YA?AT__m128@@T5@@Z@4_NA 10047502     RTreeCooking.obj
 0003:00000503       ?_ignore@?2??V3Add@aos@shdfnd@physx@@YA?AT__m128@@T5@0@Z@4_NA 10047503     RTreeCooking.obj
 0003:00000504       ?_ignore@?3??V3Add@aos@shdfnd@physx@@YA?AT__m128@@T5@0@Z@4_NA 10047504     RTreeCooking.obj
 0003:00000505       ?_ignore@?2??V3Sub@aos@shdfnd@physx@@YA?AT__m128@@T5@0@Z@4_NA 10047505     RTreeCooking.obj
 0003:00000506       ?_ignore@?3??V3Sub@aos@shdfnd@physx@@YA?AT__m128@@T5@0@Z@4_NA 10047506     RTreeCooking.obj
 0003:00000507       ?_ignore@?2??V3Dot@aos@shdfnd@physx@@YA?AT__m128@@T5@0@Z@4_NA 10047507     RTreeCooking.obj
 0003:00000508       ?_ignore@?3??V3Dot@aos@shdfnd@physx@@YA?AT__m128@@T5@0@Z@4_NA 10047508     RTreeCooking.obj
 0003:00000509       ?_ignore@?2??V3Max@aos@shdfnd@physx@@YA?AT__m128@@T5@0@Z@4_NA 10047509     RTreeCooking.obj
 0003:0000050a       ?_ignore@?3??V3Max@aos@shdfnd@physx@@YA?AT__m128@@T5@0@Z@4_NA 1004750a     RTreeCooking.obj
 0003:0000050b       ?_ignore@?2??V3Min@aos@shdfnd@physx@@YA?AT__m128@@T5@0@Z@4_NA 1004750b     RTreeCooking.obj
 0003:0000050c       ?_ignore@?3??V3Min@aos@shdfnd@physx@@YA?AT__m128@@T5@0@Z@4_NA 1004750c     RTreeCooking.obj
 0003:0000050d       ?_ignore@?2??V3PermZXY@aos@shdfnd@physx@@YA?AT__m128@@T5@@Z@4_NA 1004750d     RTreeCooking.obj
 0003:0000050f       ?_ignore@?5??sort4@SubSortQuick@physx@@QAEXPIAIIAAV?$Array@URTreeNodeNQ@physx@@VNamedAllocator@shdfnd@2@@shdfnd@3@AAIAAUPxBounds3V@3@I@Z@4_NA 1004750f     RTreeCooking.obj
 0003:00000510       ?_ignore@?6??sort4@SubSortQuick@physx@@QAEXPIAIIAAV?$Array@URTreeNodeNQ@physx@@VNamedAllocator@shdfnd@2@@shdfnd@3@AAIAAUPxBounds3V@3@I@Z@4_NA 10047510     RTreeCooking.obj
 0003:00000511       ?_ignore@?7??sort4@SubSortQuick@physx@@QAEXPIAIIAAV?$Array@URTreeNodeNQ@physx@@VNamedAllocator@shdfnd@2@@shdfnd@3@AAIAAUPxBounds3V@3@I@Z@4_NA 10047511     RTreeCooking.obj
 0003:00000512       ?_ignore@?8??sort4@SubSortQuick@physx@@QAEXPIAIIAAV?$Array@URTreeNodeNQ@physx@@VNamedAllocator@shdfnd@2@@shdfnd@3@AAIAAUPxBounds3V@3@I@Z@4_NA 10047512     RTreeCooking.obj
 0003:00000513       ?_ignore@?M@??sort4@SubSortQuick@physx@@QAEXPIAIIAAV?$Array@URTreeNodeNQ@physx@@VNamedAllocator@shdfnd@2@@shdfnd@3@AAIAAUPxBounds3V@3@I@Z@4_NA 10047513     RTreeCooking.obj
 0003:00000514       ?_ignore@?BH@??sort4@SubSortQuick@physx@@QAEXPIAIIAAV?$Array@URTreeNodeNQ@physx@@VNamedAllocator@shdfnd@2@@shdfnd@3@AAIAAUPxBounds3V@3@I@Z@4_NA 10047514     RTreeCooking.obj
 0003:00000515       ?_ignore@?6??split@SubSortSAH@physx@@QAEIPAII@Z@4_NA 10047515     RTreeCooking.obj
 0003:00000516       ?_ignore@?7??split@SubSortSAH@physx@@QAEIPAII@Z@4_NA 10047516     RTreeCooking.obj
 0003:00000517       ?_ignore@?8??split@SubSortSAH@physx@@QAEIPAII@Z@4_NA 10047517     RTreeCooking.obj
 0003:00000518       ?_ignore@?9??split@SubSortSAH@physx@@QAEIPAII@Z@4_NA 10047518     RTreeCooking.obj
 0003:00000519       ?_ignore@?L@??split@SubSortSAH@physx@@QAEIPAII@Z@4_NA 10047519     RTreeCooking.obj
 0003:0000051a       ?_ignore@?BO@??split@SubSortSAH@physx@@QAEIPAII@Z@4_NA 1004751a     RTreeCooking.obj
 0003:0000051b       ?_ignore@?CB@??split@SubSortSAH@physx@@QAEIPAII@Z@4_NA 1004751b     RTreeCooking.obj
 0003:0000051c       ?_ignore@?2??computeSA@SubSortSAH@physx@@QAEMPBIABUInterval@3@@Z@4_NA 1004751c     RTreeCooking.obj
 0003:0000051d       ?_ignore@?BD@??sort4@SubSortSAH@physx@@QAEXPAIIAAV?$Array@URTreeNodeNQ@physx@@VNamedAllocator@shdfnd@2@@shdfnd@3@AAIIPAURTreeNodeNQ@3@@Z@4_NA 1004751d     RTreeCooking.obj
 0003:0000051e       ?_ignore@?BE@??sort4@SubSortSAH@physx@@QAEXPAIIAAV?$Array@URTreeNodeNQ@physx@@VNamedAllocator@shdfnd@2@@shdfnd@3@AAIIPAURTreeNodeNQ@3@@Z@4_NA 1004751e     RTreeCooking.obj
 0003:0000051f       ?_ignore@?BF@??sort4@SubSortSAH@physx@@QAEXPAIIAAV?$Array@URTreeNodeNQ@physx@@VNamedAllocator@shdfnd@2@@shdfnd@3@AAIIPAURTreeNodeNQ@3@@Z@4_NA 1004751f     RTreeCooking.obj
 0003:00000520       ?_ignore@?BG@??sort4@SubSortSAH@physx@@QAEXPAIIAAV?$Array@URTreeNodeNQ@physx@@VNamedAllocator@shdfnd@2@@shdfnd@3@AAIIPAURTreeNodeNQ@3@@Z@4_NA 10047520     RTreeCooking.obj
 0003:00000521       ?_ignore@?BH@??sort4@SubSortSAH@physx@@QAEXPAIIAAV?$Array@URTreeNodeNQ@physx@@VNamedAllocator@shdfnd@2@@shdfnd@3@AAIIPAURTreeNodeNQ@3@@Z@4_NA 10047521     RTreeCooking.obj
 0003:00000522       ?_ignore@?BJ@??sort4@SubSortSAH@physx@@QAEXPAIIAAV?$Array@URTreeNodeNQ@physx@@VNamedAllocator@shdfnd@2@@shdfnd@3@AAIIPAURTreeNodeNQ@3@@Z@4_NA 10047522     RTreeCooking.obj
 0003:00000523       ?_ignore@?BP@??sort4@SubSortSAH@physx@@QAEXPAIIAAV?$Array@URTreeNodeNQ@physx@@VNamedAllocator@shdfnd@2@@shdfnd@3@AAIIPAURTreeNodeNQ@3@@Z@4_NA 10047523     RTreeCooking.obj
 0003:00000524       ?_ignore@?CA@??sort4@SubSortSAH@physx@@QAEXPAIIAAV?$Array@URTreeNodeNQ@physx@@VNamedAllocator@shdfnd@2@@shdfnd@3@AAIIPAURTreeNodeNQ@3@@Z@4_NA 10047524     RTreeCooking.obj
 0003:00000525       ?_ignore@?CB@??sort4@SubSortSAH@physx@@QAEXPAIIAAV?$Array@URTreeNodeNQ@physx@@VNamedAllocator@shdfnd@2@@shdfnd@3@AAIIPAURTreeNodeNQ@3@@Z@4_NA 10047525     RTreeCooking.obj
 0003:00000526       ?_ignore@?CC@??sort4@SubSortSAH@physx@@QAEXPAIIAAV?$Array@URTreeNodeNQ@physx@@VNamedAllocator@shdfnd@2@@shdfnd@3@AAIIPAURTreeNodeNQ@3@@Z@4_NA 10047526     RTreeCooking.obj
 0003:00000527       ?_ignore@?CD@??sort4@SubSortSAH@physx@@QAEXPAIIAAV?$Array@URTreeNodeNQ@physx@@VNamedAllocator@shdfnd@2@@shdfnd@3@AAIIPAURTreeNodeNQ@3@@Z@4_NA 10047527     RTreeCooking.obj
 0003:00000528       ?_ignore@?DD@??sort4@SubSortSAH@physx@@QAEXPAIIAAV?$Array@URTreeNodeNQ@physx@@VNamedAllocator@shdfnd@2@@shdfnd@3@AAIIPAURTreeNodeNQ@3@@Z@4_NA 10047528     RTreeCooking.obj
 0003:00000529       ?_ignore@?DI@??sort4@SubSortSAH@physx@@QAEXPAIIAAV?$Array@URTreeNodeNQ@physx@@VNamedAllocator@shdfnd@2@@shdfnd@3@AAIIPAURTreeNodeNQ@3@@Z@4_NA 10047529     RTreeCooking.obj
 0003:00000532       ?_ignore@?2???A?$Array@URTreeNodeQ@Gu@physx@@VNamedAllocator@shdfnd@3@@shdfnd@physx@@QAEAAURTreeNodeQ@Gu@3@I@Z@4_NA 10047532     RTreeCooking.obj
 0003:00000533       ?_ignore@?2??replaceWithLast@?$Array@UInterval@physx@@V?$InlineAllocator@$0CAAA@VNamedAllocator@shdfnd@physx@@@shdfnd@2@@shdfnd@physx@@QAEXI@Z@4_NA 10047533     RTreeCooking.obj
 0003:00000534       ?_ignore@?2???A?$Array@UInterval@physx@@V?$InlineAllocator@$0CAAA@VNamedAllocator@shdfnd@physx@@@shdfnd@2@@shdfnd@physx@@QAEAAUInterval@3@I@Z@4_NA 10047534     RTreeCooking.obj
 0003:00000535       ?_ignore@?2???A?$Array@URTreeNodeNQ@physx@@VNamedAllocator@shdfnd@2@@shdfnd@physx@@QAEAAURTreeNodeNQ@3@I@Z@4_NA 10047535     RTreeCooking.obj
 0003:00000536       ?_ignore@?2??popBack@?$Array@IVNamedAllocator@shdfnd@physx@@@shdfnd@physx@@QAEIXZ@4_NA 10047536     RTreeCooking.obj
 0003:00000537       ?_ignore@?2???A?$Array@IVNamedAllocator@shdfnd@physx@@@shdfnd@physx@@QAEAAII@Z@4_NA 10047537     RTreeCooking.obj
 0003:00000538       ?_ignore@?2??grow@?$Array@URTreeNodeQ@Gu@physx@@VNamedAllocator@shdfnd@3@@shdfnd@physx@@IAEXI@Z@4_NA 10047538     RTreeCooking.obj
 0003:00000539       ?_ignore@?2??grow@?$Array@URTreeNodeNQ@physx@@VNamedAllocator@shdfnd@2@@shdfnd@physx@@IAEXI@Z@4_NA 10047539     RTreeCooking.obj
 0003:0000053a       ?_ignore@?2??grow@?$Array@VPxVec3@physx@@VNamedAllocator@shdfnd@2@@shdfnd@physx@@IAEXI@Z@4_NA 1004753a     RTreeCooking.obj
 0003:0000053b       ?_ignore@?2??grow@?$Array@UPxBounds3V@physx@@VNamedAllocator@shdfnd@2@@shdfnd@physx@@IAEXI@Z@4_NA 1004753b     RTreeCooking.obj
 0003:0000053c       ?_ignore@?2??grow@?$Array@IVNamedAllocator@shdfnd@physx@@@shdfnd@physx@@IAEXI@Z@4_NA 1004753c     RTreeCooking.obj
 0003:0000053d       ?_ignore@?2??growAndPushBack@?$Array@IVNamedAllocator@shdfnd@physx@@@shdfnd@physx@@IAEAAIABI@Z@4_NA 1004753d     RTreeCooking.obj
 0003:0000053e       ?_ignore@?2??recreate@?$Array@IVNamedAllocator@shdfnd@physx@@@shdfnd@physx@@IAEXI@Z@4_NA 1004753e     RTreeCooking.obj
 0003:0000053f       ?_ignore@?2??growAndPushBack@?$Array@UPxBounds3V@physx@@VNamedAllocator@shdfnd@2@@shdfnd@physx@@IAEAAUPxBounds3V@4@ABU54@@Z@4_NA 1004753f     RTreeCooking.obj
 0003:00000540       ?_ignore@?2??recreate@?$Array@UPxBounds3V@physx@@VNamedAllocator@shdfnd@2@@shdfnd@physx@@IAEXI@Z@4_NA 10047540     RTreeCooking.obj
 0003:00000541       ?_ignore@?2??recreate@?$Array@VPxVec3@physx@@VNamedAllocator@shdfnd@2@@shdfnd@physx@@IAEXI@Z@4_NA 10047541     RTreeCooking.obj
 0003:00000542       ?_ignore@?2??growAndPushBack@?$Array@URTreeNodeNQ@physx@@VNamedAllocator@shdfnd@2@@shdfnd@physx@@IAEAAURTreeNodeNQ@4@ABU54@@Z@4_NA 10047542     RTreeCooking.obj
 0003:00000543       ?_ignore@?2??recreate@?$Array@URTreeNodeNQ@physx@@VNamedAllocator@shdfnd@2@@shdfnd@physx@@IAEXI@Z@4_NA 10047543     RTreeCooking.obj
 0003:00000544       ?_ignore@?2???$quickSelectFirstK@UBoundsLTE@physx@@@quickSelect@physx@@YAXPIAIIIIABUBoundsLTE@2@@Z@4_NA 10047544     RTreeCooking.obj
 0003:00000545       ?_ignore@?M@???$quickSelectFirstK@UBoundsLTE@physx@@@quickSelect@physx@@YAXPIAIIIIABUBoundsLTE@2@@Z@4_NA 10047545     RTreeCooking.obj
 0003:00000546       ?_ignore@?2??growAndPushBack@?$Array@UInterval@physx@@V?$InlineAllocator@$0CAAA@VNamedAllocator@shdfnd@physx@@@shdfnd@2@@shdfnd@physx@@IAEAAUInterval@4@ABU54@@Z@4_NA 10047546     RTreeCooking.obj
 0003:00000547       ?_ignore@?2??growAndPushBack@?$Array@URTreeNodeQ@Gu@physx@@VNamedAllocator@shdfnd@3@@shdfnd@physx@@IAEAAURTreeNodeQ@Gu@4@ABU564@@Z@4_NA 10047547     RTreeCooking.obj
 0003:00000548       ?_ignore@?2??recreate@?$Array@URTreeNodeQ@Gu@physx@@VNamedAllocator@shdfnd@3@@shdfnd@physx@@IAEXI@Z@4_NA 10047548     RTreeCooking.obj
 0003:00000549       ?_ignore@?2???$partition@UBoundsLTE@physx@@@quickSelect@physx@@YAIPIAIIIIABUBoundsLTE@2@@Z@4_NA 10047549     RTreeCooking.obj
 0003:0000054a       ?_ignore@?M@???$partition@UBoundsLTE@physx@@@quickSelect@physx@@YAIPIAIIIIABUBoundsLTE@2@@Z@4_NA 1004754a     RTreeCooking.obj
 0003:0000054b       ?_ignore@?O@???$partition@UBoundsLTE@physx@@@quickSelect@physx@@YAIPIAIIIIABUBoundsLTE@2@@Z@4_NA 1004754b     RTreeCooking.obj
 0003:0000054c       ?_ignore@?O@???$sort@IU?$Less@I@shdfnd@physx@@VNamedAllocator@23@@shdfnd@physx@@YAXPAIIABU?$Less@I@12@ABVNamedAllocator@12@I@Z@4_NA 1004754c     RTreeCooking.obj
 0003:0000054d       ?_ignore@?BM@???$sort@IU?$Less@I@shdfnd@physx@@VNamedAllocator@23@@shdfnd@physx@@YAXPAIIABU?$Less@I@12@ABVNamedAllocator@12@I@Z@4_NA 1004754d     RTreeCooking.obj
 0003:0000054e       ?_ignore@?O@???$sort@IUSortBoundsPredicate@physx@@VNamedAllocator@shdfnd@2@@shdfnd@physx@@YAXPAIIABUSortBoundsPredicate@2@ABVNamedAllocator@12@I@Z@4_NA 1004754e     RTreeCooking.obj
 0003:0000054f       ?_ignore@?BM@???$sort@IUSortBoundsPredicate@physx@@VNamedAllocator@shdfnd@2@@shdfnd@physx@@YAXPAIIABUSortBoundsPredicate@2@ABVNamedAllocator@12@I@Z@4_NA 1004754f     RTreeCooking.obj
 0003:00000550       ?_ignore@?2??pop@?$Stack@VNamedAllocator@shdfnd@physx@@@internal@shdfnd@physx@@QAEXAAH0@Z@4_NA 10047550     RTreeCooking.obj
 0003:00000551       ?_ignore@?8???$partition@I$$CBU?$Less@I@shdfnd@physx@@@internal@shdfnd@physx@@YAHPAIHHABU?$Less@I@23@@Z@4_NA 10047551     RTreeCooking.obj
 0003:00000552       ?_ignore@?9???$partition@I$$CBU?$Less@I@shdfnd@physx@@@internal@shdfnd@physx@@YAHPAIHHABU?$Less@I@23@@Z@4_NA 10047552     RTreeCooking.obj
 0003:00000553       ?_ignore@?8???$partition@I$$CBUSortBoundsPredicate@physx@@@internal@shdfnd@physx@@YAHPAIHHABUSortBoundsPredicate@3@@Z@4_NA 10047553     RTreeCooking.obj
 0003:00000554       ?_ignore@?9???$partition@I$$CBUSortBoundsPredicate@physx@@@internal@shdfnd@physx@@YAHPAIHHABUSortBoundsPredicate@3@@Z@4_NA 10047554     RTreeCooking.obj
 0003:00000620       ?_ignore@?2??LeafSetData@Gu@physx@@YAIII@Z@4_NA 10047620     TriangleMeshBuilder.obj
 0003:00000621       ?_ignore@?3??LeafSetData@Gu@physx@@YAIII@Z@4_NA 10047621     TriangleMeshBuilder.obj
 0003:00000622       ?_ignore@?2??allocateVertices@MeshDataBase@Gu@physx@@QAEPAVPxVec3@4@I@Z@4_NA 10047622     TriangleMeshBuilder.obj
 0003:00000623       ?_ignore@?2??allocateTriangles@TriangleMeshData@Gu@physx@@QAEPAXI_NI@Z@4_NA 10047623     TriangleMeshBuilder.obj
 0003:00000624       ?_ignore@?3??allocateTriangles@TriangleMeshData@Gu@physx@@QAEPAXI_NI@Z@4_NA 10047624     TriangleMeshBuilder.obj
 0003:00000625       ?_ignore@?2??allocateMaterials@TriangleMeshData@Gu@physx@@QAEPAGXZ@4_NA 10047625     TriangleMeshBuilder.obj
 0003:00000626       ?_ignore@?3??allocateMaterials@TriangleMeshData@Gu@physx@@QAEPAGXZ@4_NA 10047626     TriangleMeshBuilder.obj
 0003:00000627       ?_ignore@?2??setTriangleAdjacency@TriangleMeshData@Gu@physx@@QAEXIII@Z@4_NA 10047627     TriangleMeshBuilder.obj
 0003:00000628       ?_ignore@?2??to16@shdfnd@physx@@YAGI@Z@4_NA 10047628     TriangleMeshBuilder.obj
 0003:0000063e       ?_ignore@?2??remap@RTreeCookerRemap@physx@@UAEXPAIII@Z@4_NA 1004763e     TriangleMeshBuilder.obj
 0003:0000063f       ?_ignore@?3??remap@RTreeCookerRemap@physx@@UAEXPAIII@Z@4_NA 1004763f     TriangleMeshBuilder.obj
 0003:00000640       ?_ignore@?4??remap@RTreeCookerRemap@physx@@UAEXPAIII@Z@4_NA 10047640     TriangleMeshBuilder.obj
 0003:00000641       ?_ignore@?5??remap@RTreeCookerRemap@physx@@UAEXPAIII@Z@4_NA 10047641     TriangleMeshBuilder.obj
 0003:00000642       ?_ignore@?6??remap@RTreeCookerRemap@physx@@UAEXPAIII@Z@4_NA 10047642     TriangleMeshBuilder.obj
 0003:00000644       ?_ignore@?2???A?$Array@USharpEdgeRange@GrbTrimeshCookerHelper@physx@@VNamedAllocator@shdfnd@3@@shdfnd@physx@@QAEAAUSharpEdgeRange@GrbTrimeshCookerHelper@3@I@Z@4_NA 10047644     TriangleMeshBuilder.obj
 0003:00000645       ?_ignore@?2???A?$Array@USortedNeighbor@GrbTrimeshCookerHelper@physx@@VNamedAllocator@shdfnd@3@@shdfnd@physx@@QAEAAUSortedNeighbor@GrbTrimeshCookerHelper@3@I@Z@4_NA 10047645     TriangleMeshBuilder.obj
 0003:00000646       ?_ignore@?2??growAndPushBack@?$Array@USortedNeighbor@GrbTrimeshCookerHelper@physx@@VNamedAllocator@shdfnd@3@@shdfnd@physx@@IAEAAUSortedNeighbor@GrbTrimeshCookerHelper@4@ABU564@@Z@4_NA 10047646     TriangleMeshBuilder.obj
 0003:00000647       ?_ignore@?2??grow@?$Array@USharpEdgeRange@GrbTrimeshCookerHelper@physx@@VNamedAllocator@shdfnd@3@@shdfnd@physx@@IAEXI@Z@4_NA 10047647     TriangleMeshBuilder.obj
 0003:00000648       ?_ignore@?2??grow@?$Array@USortedNeighbor@GrbTrimeshCookerHelper@physx@@VNamedAllocator@shdfnd@3@@shdfnd@physx@@IAEXI@Z@4_NA 10047648     TriangleMeshBuilder.obj
 0003:00000649       ?_ignore@?2??recreate@?$Array@USortedNeighbor@GrbTrimeshCookerHelper@physx@@VNamedAllocator@shdfnd@3@@shdfnd@physx@@IAEXI@Z@4_NA 10047649     TriangleMeshBuilder.obj
 0003:0000064a       ?_ignore@?2??recreate@?$Array@USharpEdgeRange@GrbTrimeshCookerHelper@physx@@VNamedAllocator@shdfnd@3@@shdfnd@physx@@IAEXI@Z@4_NA 1004764a     TriangleMeshBuilder.obj
 0003:0000064b       ?_ignore@?O@???$sort@UEdgeTriLookup@physx@@U?$Less@UEdgeTriLookup@physx@@@shdfnd@2@VNamedAllocator@42@@shdfnd@physx@@YAXPAUEdgeTriLookup@2@IABU?$Less@UEdgeTriLookup@physx@@@12@ABVNamedAllocator@12@I@Z@4_NA 1004764b     TriangleMeshBuilder.obj
 0003:0000064c       ?_ignore@?BM@???$sort@UEdgeTriLookup@physx@@U?$Less@UEdgeTriLookup@physx@@@shdfnd@2@VNamedAllocator@42@@shdfnd@physx@@YAXPAUEdgeTriLookup@2@IABU?$Less@UEdgeTriLookup@physx@@@12@ABVNamedAllocator@12@I@Z@4_NA 1004764c     TriangleMeshBuilder.obj
 0003:0000064d       ?_ignore@?O@???$sort@USortedNeighbor@GrbTrimeshCookerHelper@physx@@U?$Less@USortedNeighbor@GrbTrimeshCookerHelper@physx@@@shdfnd@3@VNamedAllocator@53@@shdfnd@physx@@YAXPAUSortedNeighbor@GrbTrimeshCookerHelper@2@IABU?$Less@USortedNeighbor@GrbTrimeshCookerHelper@physx@@@12@ABVNamedAllocator@12@I@Z@4_NA 1004764d     TriangleMeshBuilder.obj
 0003:0000064e       ?_ignore@?BM@???$sort@USortedNeighbor@GrbTrimeshCookerHelper@physx@@U?$Less@USortedNeighbor@GrbTrimeshCookerHelper@physx@@@shdfnd@3@VNamedAllocator@53@@shdfnd@physx@@YAXPAUSortedNeighbor@GrbTrimeshCookerHelper@2@IABU?$Less@USortedNeighbor@GrbTrimeshCookerHelper@physx@@@12@ABVNamedAllocator@12@I@Z@4_NA 1004764e     TriangleMeshBuilder.obj
 0003:0000064f       ?_ignore@?8???$partition@UEdgeTriLookup@physx@@$$CBU?$Less@UEdgeTriLookup@physx@@@shdfnd@2@@internal@shdfnd@physx@@YAHPAUEdgeTriLookup@3@HHABU?$Less@UEdgeTriLookup@physx@@@23@@Z@4_NA 1004764f     TriangleMeshBuilder.obj
 0003:00000650       ?_ignore@?9???$partition@UEdgeTriLookup@physx@@$$CBU?$Less@UEdgeTriLookup@physx@@@shdfnd@2@@internal@shdfnd@physx@@YAHPAUEdgeTriLookup@3@HHABU?$Less@UEdgeTriLookup@physx@@@23@@Z@4_NA 10047650     TriangleMeshBuilder.obj
 0003:00000651       ?_ignore@?8???$partition@USortedNeighbor@GrbTrimeshCookerHelper@physx@@$$CBU?$Less@USortedNeighbor@GrbTrimeshCookerHelper@physx@@@shdfnd@3@@internal@shdfnd@physx@@YAHPAUSortedNeighbor@GrbTrimeshCookerHelper@3@HHABU?$Less@USortedNeighbor@GrbTrimeshCookerHelper@physx@@@23@@Z@4_NA 10047651     TriangleMeshBuilder.obj
 0003:00000652       ?_ignore@?9???$partition@USortedNeighbor@GrbTrimeshCookerHelper@physx@@$$CBU?$Less@USortedNeighbor@GrbTrimeshCookerHelper@physx@@@shdfnd@3@@internal@shdfnd@physx@@YAHPAUSortedNeighbor@GrbTrimeshCookerHelper@3@HHABU?$Less@USortedNeighbor@GrbTrimeshCookerHelper@physx@@@23@@Z@4_NA 10047652     TriangleMeshBuilder.obj
 0003:000006c4       ?_ignore@?2??to8@shdfnd@physx@@YAEI@Z@4_NA 100476c4     ConvexHullBuilder.obj
 0003:000006c5       ?_ignore@?2??computeNbPolygons@ConvexHullBuilder@physx@@QBEIXZ@4_NA 100476c5     ConvexHullBuilder.obj
 0003:00000744       ?_ignore@?2??to8@shdfnd@physx@@YAEG@Z@4_NA 10047744     ConvexHullUtils.obj
 0003:000007c0       ?_ignore@?2??FAdd@aos@shdfnd@physx@@YA?AT__m128@@T5@0@Z@4_NA 100477c0     ConvexHullUtils.obj
 0003:000007c1       ?_ignore@?3??FAdd@aos@shdfnd@physx@@YA?AT__m128@@T5@0@Z@4_NA 100477c1     ConvexHullUtils.obj
 0003:000007c2       ?_ignore@?2??FMul@aos@shdfnd@physx@@YA?AT__m128@@T5@0@Z@4_NA 100477c2     ConvexHullUtils.obj
 0003:000007c3       ?_ignore@?3??FMul@aos@shdfnd@physx@@YA?AT__m128@@T5@0@Z@4_NA 100477c3     ConvexHullUtils.obj
 0003:000007c4       ?_ignore@?2??FScaleAdd@aos@shdfnd@physx@@YA?AT__m128@@T5@00@Z@4_NA 100477c4     ConvexHullUtils.obj
 0003:000007c5       ?_ignore@?3??FScaleAdd@aos@shdfnd@physx@@YA?AT__m128@@T5@00@Z@4_NA 100477c5     ConvexHullUtils.obj
 0003:000007c6       ?_ignore@?4??FScaleAdd@aos@shdfnd@physx@@YA?AT__m128@@T5@00@Z@4_NA 100477c6     ConvexHullUtils.obj
 0003:000007c7       ?_ignore@?2??V3Scale@aos@shdfnd@physx@@YA?AT__m128@@T5@0@Z@4_NA 100477c7     ConvexHullUtils.obj
 0003:000007c8       ?_ignore@?3??V3Scale@aos@shdfnd@physx@@YA?AT__m128@@T5@0@Z@4_NA 100477c8     ConvexHullUtils.obj
 0003:000007c9       ?_ignore@?2??V3ScaleAdd@aos@shdfnd@physx@@YA?AT__m128@@T5@00@Z@4_NA 100477c9     ConvexHullUtils.obj
 0003:000007ca       ?_ignore@?3??V3ScaleAdd@aos@shdfnd@physx@@YA?AT__m128@@T5@00@Z@4_NA 100477ca     ConvexHullUtils.obj
 0003:000007cb       ?_ignore@?4??V3ScaleAdd@aos@shdfnd@physx@@YA?AT__m128@@T5@00@Z@4_NA 100477cb     ConvexHullUtils.obj
 0003:000007cc       ?_ignore@?2??V3NegScaleSub@aos@shdfnd@physx@@YA?AT__m128@@T5@00@Z@4_NA 100477cc     ConvexHullUtils.obj
 0003:000007cd       ?_ignore@?3??V3NegScaleSub@aos@shdfnd@physx@@YA?AT__m128@@T5@00@Z@4_NA 100477cd     ConvexHullUtils.obj
 0003:000007ce       ?_ignore@?4??V3NegScaleSub@aos@shdfnd@physx@@YA?AT__m128@@T5@00@Z@4_NA 100477ce     ConvexHullUtils.obj
 0003:000007cf       ?_ignore@?2??V3Cross@aos@shdfnd@physx@@YA?AT__m128@@T5@0@Z@4_NA 100477cf     ConvexHullUtils.obj
 0003:000007d0       ?_ignore@?3??V3Cross@aos@shdfnd@physx@@YA?AT__m128@@T5@0@Z@4_NA 100477d0     ConvexHullUtils.obj
 0003:000007e3       ?_ignore@?2???A?$Array@VHalfEdge@ConvexHull@physx@@VNamedAllocator@shdfnd@3@@shdfnd@physx@@QAEAAVHalfEdge@ConvexHull@3@I@Z@4_NA 100477e3     ConvexHullUtils.obj
 0003:000007e4       ?_ignore@?2???A?$Array@VHalfEdge@ConvexHull@physx@@VNamedAllocator@shdfnd@3@@shdfnd@physx@@QBEABVHalfEdge@ConvexHull@3@I@Z@4_NA 100477e4     ConvexHullUtils.obj
 0003:000007e5       ?_ignore@?2???A?$Array@VPxVec3@physx@@VNamedAllocator@shdfnd@2@@shdfnd@physx@@QBEABVPxVec3@3@I@Z@4_NA 100477e5     ConvexHullUtils.obj
 0003:000007e6       ?_ignore@?2???A?$Array@VPxPlane@physx@@VNamedAllocator@shdfnd@2@@shdfnd@physx@@QBEABVPxPlane@3@I@Z@4_NA 100477e6     ConvexHullUtils.obj
 0003:000007e7       ?_ignore@?2??growAndPushBack@?$Array@VPxPlane@physx@@VNamedAllocator@shdfnd@2@@shdfnd@physx@@IAEAAVPxPlane@4@ABV54@@Z@4_NA 100477e7     ConvexHullUtils.obj
 0003:000007e8       ?_ignore@?2??growAndPushBack@?$Array@VHalfEdge@ConvexHull@physx@@VNamedAllocator@shdfnd@3@@shdfnd@physx@@IAEAAVHalfEdge@ConvexHull@4@ABV564@@Z@4_NA 100477e8     ConvexHullUtils.obj
 0003:000007e9       ?_ignore@?2??grow@?$Array@VHalfEdge@ConvexHull@physx@@VNamedAllocator@shdfnd@3@@shdfnd@physx@@IAEXI@Z@4_NA 100477e9     ConvexHullUtils.obj
 0003:000007ea       ?_ignore@?2??grow@?$Array@VPxPlane@physx@@VNamedAllocator@shdfnd@2@@shdfnd@physx@@IAEXI@Z@4_NA 100477ea     ConvexHullUtils.obj
 0003:000007eb       ?_ignore@?2??recreate@?$Array@VPxPlane@physx@@VNamedAllocator@shdfnd@2@@shdfnd@physx@@IAEXI@Z@4_NA 100477eb     ConvexHullUtils.obj
 0003:000007ec       ?_ignore@?2??recreate@?$Array@VHalfEdge@ConvexHull@physx@@VNamedAllocator@shdfnd@3@@shdfnd@physx@@IAEXI@Z@4_NA 100477ec     ConvexHullUtils.obj
 0003:00000863       ?_ignore@?2??remove@?$Array@VPair@@VNamedAllocator@shdfnd@physx@@@shdfnd@physx@@QAEXI@Z@4_NA 10047863     ConvexPolygonsBuilder.obj
 0003:00000864       ?_ignore@?2???A?$Array@VPair@@VNamedAllocator@shdfnd@physx@@@shdfnd@physx@@QAEAAVPair@@I@Z@4_NA 10047864     ConvexPolygonsBuilder.obj
 0003:00000865       ?_ignore@?2??forceSize_Unsafe@?$Array@IVNamedAllocator@shdfnd@physx@@@shdfnd@physx@@QAEXI@Z@4_NA 10047865     ConvexPolygonsBuilder.obj
 0003:00000866       ?_ignore@?2??remove@?$Array@IVNamedAllocator@shdfnd@physx@@@shdfnd@physx@@QAEXI@Z@4_NA 10047866     ConvexPolygonsBuilder.obj
 0003:00000867       ?_ignore@?2??growAndPushBack@?$Array@VPair@@VNamedAllocator@shdfnd@physx@@@shdfnd@physx@@IAEAAVPair@@ABV5@@Z@4_NA 10047867     ConvexPolygonsBuilder.obj
 0003:0000086c       ?_ignore@?2??getHead@QuickHullHalfEdge@local@@QBEABUQuickHullVertex@3@XZ@4_NA 1004786c     QuickHullConvexHullLib.obj
 0003:0000086d       ?_ignore@?2??computeNormalAndCentroid@QuickHullFace@local@@QAEXXZ@4_NA 1004786d     QuickHullConvexHullLib.obj
 0003:0000086e       ?_ignore@?8??computeNormalAndCentroid@QuickHullFace@local@@QAEXXZ@4_NA 1004786e     QuickHullConvexHullLib.obj
 0003:0000088f       ?_ignore@?2???A?$Array@UExpandPoint@local@@VNamedAllocator@shdfnd@physx@@@shdfnd@physx@@QAEAAUExpandPoint@local@@I@Z@4_NA 1004788f     QuickHullConvexHullLib.obj
 0003:00000890       ?_ignore@?2???A?$Array@IVNamedAllocator@shdfnd@physx@@@shdfnd@physx@@QBEABII@Z@4_NA 10047890     QuickHullConvexHullLib.obj
 0003:00000891       ?_ignore@?2??getFreeItem@?$MemBlock@UQuickHullFace@local@@$00@local@@QAEPAUQuickHullFace@3@XZ@4_NA 10047891     QuickHullConvexHullLib.obj
 0003:00000892       ?_ignore@?2??getItem@?$MemBlock@UQuickHullFace@local@@$00@local@@QAEPAUQuickHullFace@3@I@Z@4_NA 10047892     QuickHullConvexHullLib.obj
 0003:00000893       ?_ignore@?3??getItem@?$MemBlock@UQuickHullFace@local@@$00@local@@QAEPAUQuickHullFace@3@I@Z@4_NA 10047893     QuickHullConvexHullLib.obj
 0003:00000894       ?_ignore@?2??init@?$MemBlock@UQuickHullFace@local@@$00@local@@QAEXI@Z@4_NA 10047894     QuickHullConvexHullLib.obj
 0003:00000895       ?_ignore@?2??getFreeItem@?$MemBlock@UQuickHullHalfEdge@local@@$0A@@local@@QAEPAUQuickHullHalfEdge@3@XZ@4_NA 10047895     QuickHullConvexHullLib.obj
 0003:00000896       ?_ignore@?2??init@?$MemBlock@UQuickHullHalfEdge@local@@$0A@@local@@QAEXI@Z@4_NA 10047896     QuickHullConvexHullLib.obj
 0003:00000897       ?_ignore@?2???A?$Array@PAUQuickHullFace@local@@VNamedAllocator@shdfnd@physx@@@shdfnd@physx@@QAEAAPAUQuickHullFace@local@@I@Z@4_NA 10047897     QuickHullConvexHullLib.obj
 0003:00000898       ?_ignore@?2???A?$Array@PAUQuickHullFace@local@@VNamedAllocator@shdfnd@physx@@@shdfnd@physx@@QBEABQAUQuickHullFace@local@@I@Z@4_NA 10047898     QuickHullConvexHullLib.obj
 0003:00000899       ?_ignore@?2???A?$Array@PAUQuickHullHalfEdge@local@@VNamedAllocator@shdfnd@physx@@@shdfnd@physx@@QBEABQAUQuickHullHalfEdge@local@@I@Z@4_NA 10047899     QuickHullConvexHullLib.obj
 0003:0000089a       ?_ignore@?2???A?$Array@PAUQuickHullVertex@local@@VNamedAllocator@shdfnd@physx@@@shdfnd@physx@@QAEAAPAUQuickHullVertex@local@@I@Z@4_NA 1004789a     QuickHullConvexHullLib.obj
 0003:0000089b       ?_ignore@?2???A?$Array@VPxPlane@physx@@VNamedAllocator@shdfnd@2@@shdfnd@physx@@QAEAAVPxPlane@3@I@Z@4_NA 1004789b     QuickHullConvexHullLib.obj
 0003:0000089c       ?_ignore@?2??grow@?$Array@UExpandPoint@local@@VNamedAllocator@shdfnd@physx@@@shdfnd@physx@@IAEXI@Z@4_NA 1004789c     QuickHullConvexHullLib.obj
 0003:0000089d       ?_ignore@?2??grow@?$Array@PAUQuickHullFace@local@@VNamedAllocator@shdfnd@physx@@@shdfnd@physx@@IAEXI@Z@4_NA 1004789d     QuickHullConvexHullLib.obj
 0003:0000089e       ?_ignore@?2??grow@?$Array@PAUQuickHullHalfEdge@local@@VNamedAllocator@shdfnd@physx@@@shdfnd@physx@@IAEXI@Z@4_NA 1004789e     QuickHullConvexHullLib.obj
 0003:0000089f       ?_ignore@?2???A?$Array@PAUQuickHullHalfEdge@local@@VNamedAllocator@shdfnd@physx@@@shdfnd@physx@@QAEAAPAUQuickHullHalfEdge@local@@I@Z@4_NA 1004789f     QuickHullConvexHullLib.obj
 0003:000008a0       ?_ignore@?2??grow@?$Array@PAUQuickHullVertex@local@@VNamedAllocator@shdfnd@physx@@@shdfnd@physx@@IAEXI@Z@4_NA 100478a0     QuickHullConvexHullLib.obj
 0003:000008a1       ?_ignore@?2??growAndPushBack@?$Array@PAUQuickHullVertex@local@@VNamedAllocator@shdfnd@physx@@@shdfnd@physx@@IAEAAPAUQuickHullVertex@local@@ABQAU56@@Z@4_NA 100478a1     QuickHullConvexHullLib.obj
 0003:000008a2       ?_ignore@?2??recreate@?$Array@PAUQuickHullVertex@local@@VNamedAllocator@shdfnd@physx@@@shdfnd@physx@@IAEXI@Z@4_NA 100478a2     QuickHullConvexHullLib.obj
 0003:000008a3       ?_ignore@?2??growAndPushBack@?$Array@PAUQuickHullHalfEdge@local@@VNamedAllocator@shdfnd@physx@@@shdfnd@physx@@IAEAAPAUQuickHullHalfEdge@local@@ABQAU56@@Z@4_NA 100478a3     QuickHullConvexHullLib.obj
 0003:000008a4       ?_ignore@?2??recreate@?$Array@PAUQuickHullHalfEdge@local@@VNamedAllocator@shdfnd@physx@@@shdfnd@physx@@IAEXI@Z@4_NA 100478a4     QuickHullConvexHullLib.obj
 0003:000008a5       ?_ignore@?2??growAndPushBack@?$Array@PAUQuickHullFace@local@@VNamedAllocator@shdfnd@physx@@@shdfnd@physx@@IAEAAPAUQuickHullFace@local@@ABQAU56@@Z@4_NA 100478a5     QuickHullConvexHullLib.obj
 0003:000008a6       ?_ignore@?2??recreate@?$Array@PAUQuickHullFace@local@@VNamedAllocator@shdfnd@physx@@@shdfnd@physx@@IAEXI@Z@4_NA 100478a6     QuickHullConvexHullLib.obj
 0003:000008a7       ?_ignore@?2??growAndPushBack@?$Array@UExpandPoint@local@@VNamedAllocator@shdfnd@physx@@@shdfnd@physx@@IAEAAUExpandPoint@local@@ABU56@@Z@4_NA 100478a7     QuickHullConvexHullLib.obj
 0003:000008a8       ?_ignore@?2??recreate@?$Array@UExpandPoint@local@@VNamedAllocator@shdfnd@physx@@@shdfnd@physx@@IAEXI@Z@4_NA 100478a8     QuickHullConvexHullLib.obj
 0003:00000910       ?_ignore@?2??FAllGrtr@aos@shdfnd@physx@@YAIT__m128@@0@Z@4_NA 10047910     VolumeIntegration.obj
 0003:00000911       ?_ignore@?3??FAllGrtr@aos@shdfnd@physx@@YAIT__m128@@0@Z@4_NA 10047911     VolumeIntegration.obj
 0003:00000912       ?_ignore@?2??V4ScaleInv@aos@shdfnd@physx@@YA?AT__m128@@T5@0@Z@4_NA 10047912     VolumeIntegration.obj
 0003:00000918       __hmod__PhysXCommon_32_dll 10047918     PhysXCommon_32:PhysXCommon_32.dll
 0003:0000091c       __hmod__PhysXFoundation_32_dll 1004791c     PhysXFoundation_32:PhysXFoundation_32.dll
 0003:00000920       ?DloadKernel32@@3PAUHINSTANCE__@@A 10047920     Delayimp:delayhlp.obj
 0003:00000924       ?DloadAcquireSRWLockExclusive@@3P6GXPAK@ZA 10047924     Delayimp:delayhlp.obj
 0003:00000928       ?DloadReleaseSRWLockExclusive@@3P6GXPAK@ZA 10047928     Delayimp:delayhlp.obj
 0003:0000092c       ?DloadSrwLock@@3KA         1004792c     Delayimp:delayhlp.obj
 0003:00000930       ?DloadSectionLockCount@@3KA 10047930     Delayimp:delayhlp.obj
 0003:00000934       ?DloadSectionOldProtection@@3KA 10047934     Delayimp:delayhlp.obj
 0003:00000938       ?DloadSectionCommitPermanent@@3KA 10047938     Delayimp:delayhlp.obj
 0003:00000940       ?__type_info_root_node@@3U__type_info_node@@A 10047940     MSVCRTD:tncleanup.obj
 0003:00000958       ?_OptionsStorage@?1??__local_stdio_printf_options@@9@4_KA 10047958     MSVCRTD:default_local_stdio_options.obj
 0003:00000960       ?_OptionsStorage@?1??__local_stdio_scanf_options@@9@4_KA 10047960     MSVCRTD:default_local_stdio_options.obj
 0003:00000968       ___scrt_current_native_startup_state 10047968     MSVCRTD:utility.obj
 0003:0000096c       ___scrt_native_startup_lock 1004796c     MSVCRTD:utility.obj
 0003:0000098c       ___scrt_debugger_hook_flag 1004798c     MSVCRTD:utility_desktop.obj
 0003:00000990       ___isa_available           10047990     MSVCRTD:cpu_disp.obj
 0003:00000994       ___favor                   10047994     MSVCRTD:cpu_disp.obj
 0003:00000cbc       ___dyn_tls_init_callback   10047cbc     <common>

 entry point at        0001:0003ab00

 Static symbols

 0000:fffb5000       .debug$S                   10000000     vcruntimed:VCRUNTIME140D.dll
 0000:fffb5000       .debug$S                   10000000     kernel32:KERNEL32.dll
 0000:fffb5000       .debug$S                   10000000     kernel32:KERNEL32.dll
 0000:fffb5000       .debug$S                   10000000     kernel32:KERNEL32.dll
 0000:fffb5000       .debug$S                   10000000     kernel32:KERNEL32.dll
 0000:fffb5000       .debug$S                   10000000     kernel32:KERNEL32.dll
 0000:fffb5000       .debug$S                   10000000     kernel32:KERNEL32.dll
 0000:fffb5000       .debug$S                   10000000     ucrtd:ucrtbased.dll
 0000:fffb5000       .debug$S                   10000000     ucrtd:ucrtbased.dll
 0000:fffb5000       .debug$S                   10000000     ucrtd:ucrtbased.dll
 0000:fffb5000       .debug$S                   10000000     ucrtd:ucrtbased.dll
 0000:fffb5000       .debug$S                   10000000     ucrtd:ucrtbased.dll
 0000:fffb5000       .debug$S                   10000000     ucrtd:ucrtbased.dll
 0000:fffb5000       .debug$S                   10000000     ucrtd:ucrtbased.dll
 0000:fffb5000       .debug$S                   10000000     PhysXCommon_32:PhysXCommon_32.dll
 0000:fffb5000       .debug$S                   10000000     vcruntimed:VCRUNTIME140D.dll
 0000:fffb5000       .debug$S                   10000000     vcruntimed:VCRUNTIME140D.dll
 0000:fffb5000       .debug$S                   10000000     kernel32:KERNEL32.dll
 0000:fffb5000       .debug$S                   10000000     kernel32:KERNEL32.dll
 0000:fffb5000       .debug$S                   10000000     kernel32:KERNEL32.dll
 0000:fffb5000       .debug$S                   10000000     kernel32:KERNEL32.dll
 0000:fffb5000       .debug$S                   10000000     kernel32:KERNEL32.dll
 0000:fffb5000       .debug$S                   10000000     kernel32:KERNEL32.dll
 0000:fffb5000       .debug$S                   10000000     vcruntimed:VCRUNTIME140D.dll
 0000:fffb5000       .debug$S                   10000000     vcruntimed:VCRUNTIME140D.dll
 0000:fffb5000       .debug$S                   10000000     PhysXCommon_32:PhysXCommon_32.dll
 0000:fffb5000       .debug$S                   10000000     vcruntimed:VCRUNTIME140D.dll
 0000:fffb5000       .debug$S                   10000000     vcruntimed:VCRUNTIME140D.dll
 0000:fffb5000       .debug$S                   10000000     vcruntimed:VCRUNTIME140D.dll
 0000:fffb5000       .debug$S                   10000000     vcruntimed:VCRUNTIME140D.dll
 0000:fffb5000       .debug$S                   10000000     vcruntimed:VCRUNTIME140D.dll
 0000:fffb5000       .debug$S                   10000000     PhysXCommon_32:PhysXCommon_32.dll
 0000:fffb5000       .debug$S                   10000000     PhysXCommon_32:PhysXCommon_32.dll
 0000:fffb5000       .debug$S                   10000000     PhysXCommon_32:PhysXCommon_32.dll
 0000:fffb5000       .debug$S                   10000000     PhysXCommon_32:PhysXCommon_32.dll
 0000:fffb5000       .debug$S                   10000000     PhysXCommon_32:PhysXCommon_32.dll
 0000:fffb5000       .debug$S                   10000000     PhysXFoundation_32:PhysXFoundation_32.dll
 0000:fffb5000       .debug$S                   10000000     kernel32:KERNEL32.dll
 0000:fffb5000       .debug$S                   10000000     PhysXCommon_32:PhysXCommon_32.dll
 0000:fffb5000       .debug$S                   10000000     ucrtd:ucrtbased.dll
 0000:fffb5000       .debug$S                   10000000     ucrtd:ucrtbased.dll
 0000:fffb5000       .debug$S                   10000000     ucrtd:ucrtbased.dll
 0000:fffb5000       .debug$S                   10000000     ucrtd:ucrtbased.dll
 0000:fffb5000       .debug$S                   10000000     PhysXFoundation_32:PhysXFoundation_32.dll
 0000:fffb5000       .debug$S                   10000000     PhysXFoundation_32:PhysXFoundation_32.dll
 0000:fffb5000       .debug$S                   10000000     PhysXFoundation_32:PhysXFoundation_32.dll
 0000:fffb5000       .debug$S                   10000000     PhysXFoundation_32:PhysXFoundation_32.dll
 0000:fffb5000       .debug$S                   10000000     PhysXFoundation_32:PhysXFoundation_32.dll
 0000:fffb5000       .debug$S                   10000000     PhysXFoundation_32:PhysXFoundation_32.dll
 0000:fffb5000       .debug$S                   10000000     PhysXFoundation_32:PhysXFoundation_32.dll
 0000:fffb5000       .debug$S                   10000000     PhysXFoundation_32:PhysXFoundation_32.dll
 0000:fffb5000       .debug$S                   10000000     PhysXFoundation_32:PhysXFoundation_32.dll
 0000:fffb5000       .debug$S                   10000000     PhysXFoundation_32:PhysXFoundation_32.dll
 0000:fffb5000       .debug$S                   10000000     PhysXFoundation_32:PhysXFoundation_32.dll
 0000:fffb5000       .debug$S                   10000000     PhysXFoundation_32:PhysXFoundation_32.dll
 0000:fffb5000       .debug$S                   10000000     PhysXFoundation_32:PhysXFoundation_32.dll
 0000:fffb5000       .debug$S                   10000000     ucrtd:ucrtbased.dll
 0000:fffb5000       .debug$S                   10000000     ucrtd:ucrtbased.dll
 0000:fffb5000       .debug$S                   10000000     PhysXFoundation_32:PhysXFoundation_32.dll
 0000:fffb5000       .debug$S                   10000000     ucrtd:ucrtbased.dll
 0000:fffb5000       .debug$S                   10000000     PhysXFoundation_32:PhysXFoundation_32.dll
 0000:fffb5000       .debug$S                   10000000     ucrtd:ucrtbased.dll
 0000:fffb5000       .debug$S                   10000000     PhysXFoundation_32:PhysXFoundation_32.dll
 0000:fffb5000       .debug$S                   10000000     kernel32:KERNEL32.dll
 0002:fffc1000       __guard_fids___CRT_RTC_INIT 10000000     MSVCRTD:init.obj
 0002:fffc1000       __guard_fids___CRT_RTC_INITW 10000000     MSVCRTD:init.obj
 0002:fffc1000       __guard_fids__             10000000     MSVCRTD:std_type_info_static.obj
 0002:fffc1000       __guard_fids_?dllmain_dispatch@@YAHQAUHINSTANCE__@@KQAX@Z 10000000     MSVCRTD:dll_dllmain.obj
 0002:fffc1000       __guard_fids___except_handler4 10000000     MSVCRTD:chandler4gs.obj
 0002:fffc1000       __guard_fids____scrt_set_unhandled_exception_filter 10000000     MSVCRTD:utility_desktop.obj
 0002:fffc1000       __guard_fids__             10000000     MSVCRTD:guard_support.obj
 0002:fffc1000       __guard_fids___guard_icall_checks_enforced 10000000     MSVCRTD:guard_support.obj
 0000:fffb5000       .debug$S                   10000000     ucrtd:ucrtbased.dll
 0000:fffb5000       .debug$S                   10000000     ucrtd:ucrtbased.dll
 0000:fffb5000       .debug$S                   10000000     ucrtd:ucrtbased.dll
 0000:fffb5000       .debug$S                   10000000     ucrtd:ucrtbased.dll
 0000:fffb5000       .debug$S                   10000000     ucrtd:ucrtbased.dll
 0000:fffb5000       .debug$S                   10000000     ucrtd:ucrtbased.dll
 0000:fffb5000       .debug$S                   10000000     ucrtd:ucrtbased.dll
 0000:fffb5000       .debug$S                   10000000     ucrtd:ucrtbased.dll
 0000:fffb5000       .debug$S                   10000000     ucrtd:ucrtbased.dll
 0000:fffb5000       .debug$S                   10000000     ucrtd:ucrtbased.dll
 0000:fffb5000       .debug$S                   10000000     ucrtd:ucrtbased.dll
 0000:fffb5000       .debug$S                   10000000     ucrtd:ucrtbased.dll
 0000:fffb5000       .debug$S                   10000000     ucrtd:ucrtbased.dll
 0000:fffb5000       .debug$S                   10000000     ucrtd:ucrtbased.dll
 0000:fffb5000       .debug$S                   10000000     ucrtd:ucrtbased.dll
 0000:fffb5000       .debug$S                   10000000     ucrtd:ucrtbased.dll
 0000:fffb5000       .debug$S                   10000000     ucrtd:ucrtbased.dll
 0000:fffb5000       .debug$S                   10000000     ucrtd:ucrtbased.dll
 0000:fffb5000       .debug$S                   10000000     PhysXCommon_32:PhysXCommon_32.dll
 0000:fffb5000       .debug$S                   10000000     PhysXCommon_32:PhysXCommon_32.dll
 0000:fffb5000       .debug$S                   10000000     PhysXCommon_32:PhysXCommon_32.dll
 0000:fffb5000       .debug$S                   10000000     PhysXCommon_32:PhysXCommon_32.dll
 0000:fffb5000       .debug$S                   10000000     PhysXCommon_32:PhysXCommon_32.dll
 0000:fffb5000       .debug$S                   10000000     PhysXCommon_32:PhysXCommon_32.dll
 0000:fffb5000       .debug$S                   10000000     PhysXCommon_32:PhysXCommon_32.dll
 0000:fffb5000       .debug$S                   10000000     PhysXCommon_32:PhysXCommon_32.dll
 0000:fffb5000       .debug$S                   10000000     PhysXCommon_32:PhysXCommon_32.dll
 0000:fffb5000       .debug$S                   10000000     PhysXCommon_32:PhysXCommon_32.dll
 0000:fffb5000       .debug$S                   10000000     PhysXCommon_32:PhysXCommon_32.dll
 0000:fffb5000       .debug$S                   10000000     PhysXCommon_32:PhysXCommon_32.dll
 0000:fffb5000       .debug$S                   10000000     PhysXCommon_32:PhysXCommon_32.dll
 0000:fffb5000       .debug$S                   10000000     PhysXCommon_32:PhysXCommon_32.dll
 0000:fffb5000       .debug$S                   10000000     PhysXCommon_32:PhysXCommon_32.dll
 0000:fffb5000       .debug$S                   10000000     PhysXCommon_32:PhysXCommon_32.dll
 0000:fffb5000       .debug$S                   10000000     PhysXCommon_32:PhysXCommon_32.dll
 0000:fffb5000       .debug$S                   10000000     PhysXCommon_32:PhysXCommon_32.dll
 0000:fffb5000       .debug$S                   10000000     PhysXCommon_32:PhysXCommon_32.dll
 0000:fffb5000       .debug$S                   10000000     PhysXCommon_32:PhysXCommon_32.dll
 0000:fffb5000       .debug$S                   10000000     PhysXCommon_32:PhysXCommon_32.dll
 0000:fffb5000       .debug$S                   10000000     PhysXCommon_32:PhysXCommon_32.dll
 0000:fffb5000       .debug$S                   10000000     PhysXCommon_32:PhysXCommon_32.dll
 0000:fffb5000       .debug$S                   10000000     PhysXCommon_32:PhysXCommon_32.dll
 0000:fffb5000       .debug$S                   10000000     PhysXCommon_32:PhysXCommon_32.dll
 0000:fffb5000       .debug$S                   10000000     PhysXCommon_32:PhysXCommon_32.dll
 0000:fffb5000       .debug$S                   10000000     PhysXCommon_32:PhysXCommon_32.dll
 0000:fffb5000       .debug$S                   10000000     PhysXCommon_32:PhysXCommon_32.dll
 0000:fffb5000       .debug$S                   10000000     PhysXCommon_32:PhysXCommon_32.dll
 0000:fffb5000       .debug$S                   10000000     PhysXCommon_32:PhysXCommon_32.dll
 0000:fffb5000       .debug$S                   10000000     PhysXCommon_32:PhysXCommon_32.dll
 0000:fffb5000       .debug$S                   10000000     PhysXCommon_32:PhysXCommon_32.dll
 0000:fffb5000       .debug$S                   10000000     PhysXCommon_32:PhysXCommon_32.dll
 0000:fffb5000       .debug$S                   10000000     PhysXCommon_32:PhysXCommon_32.dll
 0000:fffb5000       .debug$S                   10000000     PhysXCommon_32:PhysXCommon_32.dll
 0000:fffb5000       .debug$S                   10000000     PhysXCommon_32:PhysXCommon_32.dll
 0000:fffb5000       .debug$S                   10000000     PhysXCommon_32:PhysXCommon_32.dll
 0000:fffb5000       .debug$S                   10000000     PhysXCommon_32:PhysXCommon_32.dll
 0000:fffb5000       .debug$S                   10000000     PhysXCommon_32:PhysXCommon_32.dll
 0000:fffb5000       .debug$S                   10000000     PhysXCommon_32:PhysXCommon_32.dll
 0000:fffb5000       .debug$S                   10000000     PhysXCooking_32.exp
 0000:fffb5000       .debug$S                   10000000     PhysXCommon_32:PhysXCommon_32.dll
 0000:fffb5000       .debug$S                   10000000     kernel32:KERNEL32.dll
 0000:fffb5000       .debug$S                   10000000     kernel32:KERNEL32.dll
 0000:fffb5000       .debug$S                   10000000     kernel32:KERNEL32.dll
 0000:fffb5000       .debug$S                   10000000     kernel32:KERNEL32.dll
 0000:fffb5000       .debug$S                   10000000     kernel32:KERNEL32.dll
 0000:fffb5000       .debug$S                   10000000     kernel32:KERNEL32.dll
 0000:fffb5000       .debug$S                   10000000     kernel32:KERNEL32.dll
 0000:fffb5000       .debug$S                   10000000     kernel32:KERNEL32.dll
 0000:fffb5000       .debug$S                   10000000     kernel32:KERNEL32.dll
 0000:fffb5000       .debug$S                   10000000     kernel32:KERNEL32.dll
 0000:fffb5000       .debug$S                   10000000     kernel32:KERNEL32.dll
 0000:fffb5000       .debug$S                   10000000     kernel32:KERNEL32.dll
 0000:fffb5000       .debug$S                   10000000     kernel32:KERNEL32.dll
 0000:fffb5000       .debug$S                   10000000     kernel32:KERNEL32.dll
 0001:00000000       ??__EmaxFError@_VecMathTests@aos@shdfnd@physx@@YAXXZ 10001000 f   Cooking.obj
 0001:00000050       ??__EmaxV3Error@_VecMathTests@aos@shdfnd@physx@@YAXXZ 10001050 f   Cooking.obj
 0001:000000a0       ??__EmaxV4Error@_VecMathTests@aos@shdfnd@physx@@YAXXZ 100010a0 f   Cooking.obj
 0001:000000f0       ??__EminFError@_VecMathTests@aos@shdfnd@physx@@YAXXZ 100010f0 f   Cooking.obj
 0001:00000140       ??__EminV3Error@_VecMathTests@aos@shdfnd@physx@@YAXXZ 10001140 f   Cooking.obj
 0001:00000190       ??__EminV4Error@_VecMathTests@aos@shdfnd@physx@@YAXXZ 10001190 f   Cooking.obj
 0001:000001e0       ??__EmaxFError@_VecMathTests@aos@shdfnd@physx@@YAXXZ 100011e0 f   BVHStructureBuilder.obj
 0001:00000230       ??__EmaxV3Error@_VecMathTests@aos@shdfnd@physx@@YAXXZ 10001230 f   BVHStructureBuilder.obj
 0001:00000280       ??__EmaxV4Error@_VecMathTests@aos@shdfnd@physx@@YAXXZ 10001280 f   BVHStructureBuilder.obj
 0001:000002d0       ??__EminFError@_VecMathTests@aos@shdfnd@physx@@YAXXZ 100012d0 f   BVHStructureBuilder.obj
 0001:00000320       ??__EminV3Error@_VecMathTests@aos@shdfnd@physx@@YAXXZ 10001320 f   BVHStructureBuilder.obj
 0001:00000370       ??__EminV4Error@_VecMathTests@aos@shdfnd@physx@@YAXXZ 10001370 f   BVHStructureBuilder.obj
 0001:000003c0       ??__EmaxFError@_VecMathTests@aos@shdfnd@physx@@YAXXZ 100013c0 f   RTreeCooking.obj
 0001:00000410       ??__EmaxV3Error@_VecMathTests@aos@shdfnd@physx@@YAXXZ 10001410 f   RTreeCooking.obj
 0001:00000460       ??__EmaxV4Error@_VecMathTests@aos@shdfnd@physx@@YAXXZ 10001460 f   RTreeCooking.obj
 0001:000004b0       ??__EminFError@_VecMathTests@aos@shdfnd@physx@@YAXXZ 100014b0 f   RTreeCooking.obj
 0001:00000500       ??__EminV3Error@_VecMathTests@aos@shdfnd@physx@@YAXXZ 10001500 f   RTreeCooking.obj
 0001:00000550       ??__EminV4Error@_VecMathTests@aos@shdfnd@physx@@YAXXZ 10001550 f   RTreeCooking.obj
 0001:000005a0       ??__EmaxFError@_VecMathTests@aos@shdfnd@physx@@YAXXZ 100015a0 f   MeshBuilder.obj
 0001:000005f0       ??__EmaxV3Error@_VecMathTests@aos@shdfnd@physx@@YAXXZ 100015f0 f   MeshBuilder.obj
 0001:00000640       ??__EmaxV4Error@_VecMathTests@aos@shdfnd@physx@@YAXXZ 10001640 f   MeshBuilder.obj
 0001:00000690       ??__EminFError@_VecMathTests@aos@shdfnd@physx@@YAXXZ 10001690 f   MeshBuilder.obj
 0001:000006e0       ??__EminV3Error@_VecMathTests@aos@shdfnd@physx@@YAXXZ 100016e0 f   MeshBuilder.obj
 0001:00000730       ??__EminV4Error@_VecMathTests@aos@shdfnd@physx@@YAXXZ 10001730 f   MeshBuilder.obj
 0001:00000780       ??__EmaxFError@_VecMathTests@aos@shdfnd@physx@@YAXXZ 10001780 f   TriangleMeshBuilder.obj
 0001:000007d0       ??__EmaxV3Error@_VecMathTests@aos@shdfnd@physx@@YAXXZ 100017d0 f   TriangleMeshBuilder.obj
 0001:00000820       ??__EmaxV4Error@_VecMathTests@aos@shdfnd@physx@@YAXXZ 10001820 f   TriangleMeshBuilder.obj
 0001:00000870       ??__EminFError@_VecMathTests@aos@shdfnd@physx@@YAXXZ 10001870 f   TriangleMeshBuilder.obj
 0001:000008c0       ??__EminV3Error@_VecMathTests@aos@shdfnd@physx@@YAXXZ 100018c0 f   TriangleMeshBuilder.obj
 0001:00000910       ??__EminV4Error@_VecMathTests@aos@shdfnd@physx@@YAXXZ 10001910 f   TriangleMeshBuilder.obj
 0001:00000960       ??__EmaxFError@_VecMathTests@aos@shdfnd@physx@@YAXXZ 10001960 f   BigConvexDataBuilder.obj
 0001:000009b0       ??__EmaxV3Error@_VecMathTests@aos@shdfnd@physx@@YAXXZ 100019b0 f   BigConvexDataBuilder.obj
 0001:00000a00       ??__EmaxV4Error@_VecMathTests@aos@shdfnd@physx@@YAXXZ 10001a00 f   BigConvexDataBuilder.obj
 0001:00000a50       ??__EminFError@_VecMathTests@aos@shdfnd@physx@@YAXXZ 10001a50 f   BigConvexDataBuilder.obj
 0001:00000aa0       ??__EminV3Error@_VecMathTests@aos@shdfnd@physx@@YAXXZ 10001aa0 f   BigConvexDataBuilder.obj
 0001:00000af0       ??__EminV4Error@_VecMathTests@aos@shdfnd@physx@@YAXXZ 10001af0 f   BigConvexDataBuilder.obj
 0001:00000b40       ??__EmaxFError@_VecMathTests@aos@shdfnd@physx@@YAXXZ 10001b40 f   ConvexHullBuilder.obj
 0001:00000b90       ??__EmaxV3Error@_VecMathTests@aos@shdfnd@physx@@YAXXZ 10001b90 f   ConvexHullBuilder.obj
 0001:00000be0       ??__EmaxV4Error@_VecMathTests@aos@shdfnd@physx@@YAXXZ 10001be0 f   ConvexHullBuilder.obj
 0001:00000c30       ??__EminFError@_VecMathTests@aos@shdfnd@physx@@YAXXZ 10001c30 f   ConvexHullBuilder.obj
 0001:00000c80       ??__EminV3Error@_VecMathTests@aos@shdfnd@physx@@YAXXZ 10001c80 f   ConvexHullBuilder.obj
 0001:00000cd0       ??__EminV4Error@_VecMathTests@aos@shdfnd@physx@@YAXXZ 10001cd0 f   ConvexHullBuilder.obj
 0001:00000d20       ??__EMAXDOT_MINANG@local@@YAXXZ 10001d20 f   ConvexHullUtils.obj
 0001:00000d50       ??__EmaxFError@_VecMathTests@aos@shdfnd@physx@@YAXXZ 10001d50 f   ConvexHullUtils.obj
 0001:00000da0       ??__EmaxV3Error@_VecMathTests@aos@shdfnd@physx@@YAXXZ 10001da0 f   ConvexHullUtils.obj
 0001:00000df0       ??__EmaxV4Error@_VecMathTests@aos@shdfnd@physx@@YAXXZ 10001df0 f   ConvexHullUtils.obj
 0001:00000e40       ??__EminFError@_VecMathTests@aos@shdfnd@physx@@YAXXZ 10001e40 f   ConvexHullUtils.obj
 0001:00000e90       ??__EminV3Error@_VecMathTests@aos@shdfnd@physx@@YAXXZ 10001e90 f   ConvexHullUtils.obj
 0001:00000ee0       ??__EminV4Error@_VecMathTests@aos@shdfnd@physx@@YAXXZ 10001ee0 f   ConvexHullUtils.obj
 0001:00000f30       ??__EmaxFError@_VecMathTests@aos@shdfnd@physx@@YAXXZ 10001f30 f   ConvexMeshBuilder.obj
 0001:00000f80       ??__EmaxV3Error@_VecMathTests@aos@shdfnd@physx@@YAXXZ 10001f80 f   ConvexMeshBuilder.obj
 0001:00000fd0       ??__EmaxV4Error@_VecMathTests@aos@shdfnd@physx@@YAXXZ 10001fd0 f   ConvexMeshBuilder.obj
 0001:00001020       ??__EminFError@_VecMathTests@aos@shdfnd@physx@@YAXXZ 10002020 f   ConvexMeshBuilder.obj
 0001:00001070       ??__EminV3Error@_VecMathTests@aos@shdfnd@physx@@YAXXZ 10002070 f   ConvexMeshBuilder.obj
 0001:000010c0       ??__EminV4Error@_VecMathTests@aos@shdfnd@physx@@YAXXZ 100020c0 f   ConvexMeshBuilder.obj
 0001:00001110       ??__EMAXDOT_MINANG@local@@YAXXZ 10002110 f   QuickHullConvexHullLib.obj
 0001:00001140       ??__EmaxFError@_VecMathTests@aos@shdfnd@physx@@YAXXZ 10002140 f   VolumeIntegration.obj
 0001:00001190       ??__EmaxV3Error@_VecMathTests@aos@shdfnd@physx@@YAXXZ 10002190 f   VolumeIntegration.obj
 0001:000011e0       ??__EmaxV4Error@_VecMathTests@aos@shdfnd@physx@@YAXXZ 100021e0 f   VolumeIntegration.obj
 0001:00001230       ??__EminFError@_VecMathTests@aos@shdfnd@physx@@YAXXZ 10002230 f   VolumeIntegration.obj
 0001:00001280       ??__EminV3Error@_VecMathTests@aos@shdfnd@physx@@YAXXZ 10002280 f   VolumeIntegration.obj
 0001:000012d0       ??__EminV4Error@_VecMathTests@aos@shdfnd@physx@@YAXXZ 100022d0 f   VolumeIntegration.obj
 0001:00002320       ?AddEdge@@YAXIIIAAIPAVAdjEdge@@@Z 10003320 f   Adjacencies.obj
 0001:00002370       ?AddTriangle@@YAXIIIIPAVAdjTriangle@physx@@AAIPAVAdjEdge@@@Z 10003370 f   Adjacencies.obj
 0001:00002480       ?UpdateLink@@YA_NIIIIPAVAdjTriangle@physx@@ABUADJACENCIESCREATE@2@@Z 10003480 f   Adjacencies.obj
 0001:00002680       ?CreateDatabase@@YA_NPAVAdjTriangle@physx@@IPBVAdjEdge@@ABUADJACENCIESCREATE@2@@Z 10003680 f   Adjacencies.obj
 0001:00004810       ??$reserveContainerMemory@UPxDebugLine@physx@@@Cm@physx@@YAPAUPxDebugLine@1@AAV?$Array@UPxDebugLine@physx@@VNamedAllocator@shdfnd@2@@shdfnd@1@I@Z 10005810 f   Cooking.obj
 0001:00009c30       ?OppositeVertex@@YAIIIIII@Z 1000ac30 f   EdgeList.obj
 0001:0000adf0       ?getHashValue@@YAIABVPxVec3@physx@@@Z 1000bdf0 f   MeshCleaner.obj
 0001:0000ae50       ?getHashValue@@YAIABUIndices@@@Z 1000be50 f   MeshCleaner.obj
 0001:0000e5f0       ?buildFromBounds@physx@@YAXAAURTree@Gu@1@PBUPxBounds3V@1@IAAV?$Array@IVNamedAllocator@shdfnd@physx@@@shdfnd@1@PAURemapCallback@RTreeCooker@1@AAT__m128@@4MW4Enum@PxMeshCookingHint@1@@Z 1000f5f0 f   RTreeCooking.obj
 0001:0000f1a0       ?PxSAH@physx@@YAXABT__m128@@AAM@Z 100101a0 f   RTreeCooking.obj
 0001:000189c0       ?binarySearch@physx@@YAIPIBUEdgeTriLookup@1@IABU21@@Z 100199c0 f   TriangleMeshBuilder.obj
 0001:00018a20       ?findAdjacent@physx@@YAIPBVPxVec3@1@0PBUuint3@1@IIIABVPxPlane@1@PAUEdgeTriLookup@1@I@Z 10019a20 f   TriangleMeshBuilder.obj
 0001:00018bc0       ?buildAdjacencies@physx@@YAXPAUuint4@1@PAVPxVec3@1@PBV31@PBUuint3@1@I@Z 10019bc0 f   TriangleMeshBuilder.obj
 0001:00018ef0       ?isEdgeNonconvex@physx@@YA_NI@Z 10019ef0 f   TriangleMeshBuilder.obj
 0001:0001d250       ??Dphysx@@YA?AVPxVec3@0@MABV10@@Z 1001e250 f   ConvexHullBuilder.obj
 0001:0001d2a0       ??$reserveContainerMemory@UPxDebugLine@physx@@@Cm@physx@@YAPAUPxDebugLine@1@AAV?$Array@UPxDebugLine@physx@@VNamedAllocator@shdfnd@2@@shdfnd@1@I@Z 1001e2a0 f   ConvexHullBuilder.obj
 0001:000207d0       ?checkPointsAABBValidity@local@@YA_NIPBVPxVec3@physx@@IMMAAV23@1AAIPAV23@_N@Z 100217d0 f   ConvexHullLib.obj
 0001:00023bc0       ?planeTest@local@@YA?AW4PlaneTestResult@1@ABVPxPlane@physx@@ABVPxVec3@4@M@Z 10024bc0 f   ConvexHullUtils.obj
 0001:00027790       ??$reserveContainerMemory@UPxDebugLine@physx@@@Cm@physx@@YAPAUPxDebugLine@1@AAV?$Array@UPxDebugLine@physx@@VNamedAllocator@shdfnd@2@@shdfnd@1@I@Z 10028790 f   ConvexMeshBuilder.obj
 0001:000286e0       ?ComputeInternalExtent@@YAXAAUConvexHullData@Gu@physx@@PBUHullPolygonData@23@@Z 100296e0 f   ConvexMeshBuilder.obj
 0001:0002a390       ?Flip@@YAXAAUHullTriangleData@physx@@@Z 1002b390 f   ConvexPolygonsBuilder.obj
 0001:0002a3e0       ?negatePlane@@YAXAAUHullPolygonData@Gu@physx@@@Z 1002b3e0 f   ConvexPolygonsBuilder.obj
 0001:0002a420       ?inverseBuffer@@YA_NIPAE@Z 1002b420 f   ConvexPolygonsBuilder.obj
 0001:0002a480       ?findLineStrip@@YA_NAAV?$Array@IVNamedAllocator@shdfnd@physx@@@shdfnd@physx@@ABV?$Array@VPair@@VNamedAllocator@shdfnd@physx@@@23@@Z 1002b480 f   ConvexPolygonsBuilder.obj
 0001:0002a750       ?TestDuplicateTriangles@@YA_NAAIPAU?$TriangleT@I@Gu@physx@@_N@Z 1002b750 f   ConvexPolygonsBuilder.obj
 0001:0002a900       ?testCulling@@YA_NABU?$TriangleT@I@Gu@physx@@PBVPxVec3@3@ABV43@@Z 1002b900 f   ConvexPolygonsBuilder.obj
 0001:0002a980       ?TestUnifiedNormals@@YA_NIPBVPxVec3@physx@@IPAU?$TriangleT@I@Gu@2@_N@Z 1002b980 f   ConvexPolygonsBuilder.obj
 0001:0002aad0       ?CleanFaces@@YA_NAAIPAU?$TriangleT@I@Gu@physx@@0PAVPxVec3@3@@Z 1002bad0 f   ConvexPolygonsBuilder.obj
 0001:0002ac20       ?CheckFaces@@YA_NIPBU?$TriangleT@I@Gu@physx@@IPBVPxVec3@3@@Z 1002bc20 f   ConvexPolygonsBuilder.obj
 0001:0002ac80       ?computeNewellPlane@@YA_NAAVPxPlane@physx@@IPBEPBVPxVec3@2@@Z 1002bc80 f   ConvexPolygonsBuilder.obj
 0001:0002aec0       ?checkRedundantVertices@@YAXAAIAAV?$Array@IVNamedAllocator@shdfnd@physx@@@shdfnd@physx@@ABVConvexPolygonsBuilder@3@11@Z 1002bec0 f   ConvexPolygonsBuilder.obj
 0001:0002b3e0       ?extractHullPolygons@@YA_NAAIAAV?$Array@IVNamedAllocator@shdfnd@physx@@@shdfnd@physx@@ABVConvexPolygonsBuilder@3@PAV123@1@Z 1002c3e0 f   ConvexPolygonsBuilder.obj
 0001:0002c010       ?CheckFloodFill@Local@?8??extractHullPolygons@@YA_NAAIAAV?$Array@IVNamedAllocator@shdfnd@physx@@@shdfnd@physx@@ABVConvexPolygonsBuilder@5@PAV345@1@Z@SA_N1PAVAdjTriangle@5@PA_NPBI@Z 1002d010 f   ConvexPolygonsBuilder.obj
 0001:0002c220       ?CheckFloodFillFace@Local@?8??extractHullPolygons@@YA_NAAIAAV?$Array@IVNamedAllocator@shdfnd@physx@@@shdfnd@physx@@ABVConvexPolygonsBuilder@5@PAV345@1@Z@SA_NIPBVAdjTriangle@5@PBI@Z 1002d220 f   ConvexPolygonsBuilder.obj
 0001:0002c400       ?FloodFill@Local@?8??extractHullPolygons@@YA_NAAIAAV?$Array@IVNamedAllocator@shdfnd@physx@@@shdfnd@physx@@ABVConvexPolygonsBuilder@5@PAV345@1@Z@SAX1PBVAdjTriangle@5@IPA_N@Z 1002d400 f   ConvexPolygonsBuilder.obj
 0001:0002c4e0       ?GetNeighborFace@Local@?8??extractHullPolygons@@YA_NAAIAAV?$Array@IVNamedAllocator@shdfnd@physx@@@shdfnd@physx@@ABVConvexPolygonsBuilder@5@PAV345@1@Z@SA_NIIPBVAdjTriangle@5@PBI00@Z 1002d4e0 f   ConvexPolygonsBuilder.obj
 0001:0002cf20       ??Dphysx@@YA?AVPxVec3@0@MABV10@@Z 1002df20 f   QuickHullConvexHullLib.obj
 0001:0002d484       $LN28                      1002e484     QuickHullConvexHullLib.obj
 0001:0002e298       $LN46                      1002f298     QuickHullConvexHullLib.obj
 0001:000322a0       ?threePlaneIntersection@local@@YA?AVPxVec3@physx@@ABVPxPlane@3@00@Z 100332a0 f   QuickHullConvexHullLib.obj
 0001:00034fc0       ??Dphysx@@YA?AVPxVec3@0@MABV10@@Z 10035fc0 f   VolumeIntegration.obj
 0001:00035110       ??0VolumeIntegrator@?A0x157ffe9b@physx@@QAE@VPxSimpleTriangleMesh@2@N@Z 10036110 f   VolumeIntegration.obj
 0001:00035160       ??1VolumeIntegrator@?A0x157ffe9b@physx@@QAE@XZ 10036160 f   VolumeIntegration.obj
 0001:00035170       ?computeVolumeIntegrals@VolumeIntegrator@?A0x157ffe9b@physx@@QAE_NAAUPxIntegrals@3@@Z 10036170 f   VolumeIntegration.obj
 0001:00035920       ?computeCenterOfMass@VolumeIntegrator@?A0x157ffe9b@physx@@AAE?AVPxVec3@3@XZ 10036920 f   VolumeIntegration.obj
 0001:00035a00       ?computeInertiaTensor@VolumeIntegrator@?A0x157ffe9b@physx@@AAEXPAN@Z 10036a00 f   VolumeIntegration.obj
 0001:00035c30       ?computeCOMInertiaTensor@VolumeIntegrator@?A0x157ffe9b@physx@@AAEXPAN@Z 10036c30 f   VolumeIntegration.obj
 0001:00035f20       ?computeFaceNormal@VolumeIntegrator@?A0x157ffe9b@physx@@AAEXAAUFace@123@PAI@Z 10036f20 f   VolumeIntegration.obj
 0001:00036040       ?computeProjectionIntegrals@VolumeIntegrator@?A0x157ffe9b@physx@@AAEXABUFace@123@@Z 10037040 f   VolumeIntegration.obj
 0001:000366a0       ?computeFaceIntegrals@VolumeIntegrator@?A0x157ffe9b@physx@@AAEXABUFace@123@@Z 100376a0 f   VolumeIntegration.obj
 0001:00036c30       ??0VolumeIntegratorEberly@?A0x157ffe9b@physx@@QAE@ABVPxConvexMeshDesc@2@N@Z 10037c30 f   VolumeIntegration.obj
 0001:00036c70       ??1VolumeIntegratorEberly@?A0x157ffe9b@physx@@QAE@XZ 10037c70 f   VolumeIntegration.obj
 0001:00036c80       ?computeVolumeIntegralsSIMD@VolumeIntegratorEberly@?A0x157ffe9b@physx@@QAE_NAAUPxIntegrals@3@ABVPxVec3@3@@Z 10037c80 f   VolumeIntegration.obj
 0001:00037c30       ?computeVolumeIntegrals@VolumeIntegratorEberly@?A0x157ffe9b@physx@@QAE_NAAUPxIntegrals@3@ABVPxVec3@3@@Z 10038c30 f   VolumeIntegration.obj
 0001:000390d0       ?subexpressions@?A0x157ffe9b@physx@@YAXNNNAAN00000@Z 1003a0d0 f   VolumeIntegration.obj
 0001:000391d0       ?subexpressionsSIMD@?A0x157ffe9b@physx@@YAXABT__m128@@00AAT3@11111@Z 1003a1d0 f   VolumeIntegration.obj
 0001:00039438       $LN12                      1003a438     WindowsCookingDelayLoadHook.obj
 0001:00039c60       ?FLoadedAtPreferredAddress@@YG_NPAU_IMAGE_NT_HEADERS@@PAUHINSTANCE__@@@Z 1003ac60 f   Delayimp:delayhlp.obj
 0001:00039c87       ?OverlayIAT@@YGXPAU_IMAGE_THUNK_DATA32@@PBU1@@Z 1003ac87 f   Delayimp:delayhlp.obj
 0001:00039cbd       ?PiddFromDllName@@YGPBUImgDelayDescr@@PBD@Z 1003acbd f   Delayimp:delayhlp.obj
 0001:00039d42       ?PinhFromImageBase@@YGPAU_IMAGE_NT_HEADERS@@PAUHINSTANCE__@@@Z 1003ad42 f   Delayimp:delayhlp.obj
 0001:00039d53       ?TimeStampOfImage@@YGKPAU_IMAGE_NT_HEADERS@@@Z 1003ad53 f   Delayimp:delayhlp.obj
 0001:00039d62       ?__memcmp@@YGHPBX0I@Z      1003ad62 f   Delayimp:delayhlp.obj
 0001:00039d95       ?__memcpy@@YGPAXPAXPBXI@Z  1003ad95 f   Delayimp:delayhlp.obj
 0001:00039dbe       ?__strlen@@YGIPBD@Z        1003adbe f   Delayimp:delayhlp.obj
 0001:0003a2d0       $$000000                   1003b2d0     MSVCRTD:alloca16.obj
 0001:0003a340       $$000000                   1003b340     MSVCRTD:chkstk.obj
 0001:0003a370       $$000000                   1003b370     MSVCRTD:ftol3.obj
 0001:0003a630       ?dllmain_crt_dispatch@@YGHQAUHINSTANCE__@@KQAX@Z 1003b630 f   MSVCRTD:dll_dllmain.obj
 0001:0003a69c       $LN11                      1003b69c     MSVCRTD:dll_dllmain.obj
 0001:0003a6b0       ?dllmain_crt_process_attach@@YAHQAUHINSTANCE__@@QAX@Z 1003b6b0 f   MSVCRTD:dll_dllmain.obj
 0001:0003a820       ?dllmain_crt_process_detach@@YAH_N@Z 1003b820 f   MSVCRTD:dll_dllmain.obj
 0001:0003a900       ?dllmain_dispatch@@YAHQAUHINSTANCE__@@KQAX@Z 1003b900 f   MSVCRTD:dll_dllmain.obj
 0001:0003aa90       ?dllmain_raw@@YGHQAUHINSTANCE__@@KQAX@Z 1003ba90 f   MSVCRTD:dll_dllmain.obj
 0001:0003ac70       ___get_entropy             1003bc70 f   MSVCRTD:gs_support.obj
 0001:0003ae10       ?find_pe_section@@YAPAU_IMAGE_SECTION_HEADER@@QAEI@Z 1003be10 f   MSVCRTD:utility.obj
 0001:0003aeb0       ?is_potentially_valid_image_base@@YA_NQAX@Z 1003beb0 f   MSVCRTD:utility.obj
 0001:0003b7e0       ?DebuggerProbe@@YA_NK@Z    1003c7e0 f   MSVCRTD:error.obj
 0001:0003b820       ?DebuggerRuntime@@YA_NKHPAXPB_W@Z 1003c820 f   MSVCRTD:error.obj
 0001:0003ba60       ?_getMemBlockDataString@@YAXPAD0PBDI@Z 1003ca60 f   MSVCRTD:error.obj
 0001:0003bad0       ?_strlen_priv@@YAIPBD@Z    1003cad0 f   MSVCRTD:error.obj
 0001:0003baf0       ?failwithmessage@@YAXPAXHHPBD@Z 1003caf0 f   MSVCRTD:error.obj
 0001:0003bcf0       ?notify_debugger@@YAXABUtagEXCEPTION_VISUALCPP_DEBUG_INFO@@@Z 1003ccf0 f   MSVCRTD:error.obj
 0001:0003c1b0       ?GetPdbDll@@YAPAUHINSTANCE__@@XZ 1003d1b0 f   MSVCRTD:pdblkup.obj
 0001:0003c2f0       ?GetPdbDllFromInstallPath@@YAPAUHINSTANCE__@@XZ 1003d2f0 f   MSVCRTD:pdblkup.obj
 0001:0003c550       ?GetPdbDllPathFromFilePath@@YAHPB_WPA_WI@Z 1003d550 f   MSVCRTD:pdblkup.obj
 0002:00000130       ?minFError$initializer$@_VecMathTests@aos@shdfnd@physx@@3P6AXXZA 1003f130     Cooking.obj
 0002:00000134       ?maxFError$initializer$@_VecMathTests@aos@shdfnd@physx@@3P6AXXZA 1003f134     Cooking.obj
 0002:00000138       ?minV3Error$initializer$@_VecMathTests@aos@shdfnd@physx@@3P6AXXZA 1003f138     Cooking.obj
 0002:0000013c       ?maxV3Error$initializer$@_VecMathTests@aos@shdfnd@physx@@3P6AXXZA 1003f13c     Cooking.obj
 0002:00000140       ?minV4Error$initializer$@_VecMathTests@aos@shdfnd@physx@@3P6AXXZA 1003f140     Cooking.obj
 0002:00000144       ?maxV4Error$initializer$@_VecMathTests@aos@shdfnd@physx@@3P6AXXZA 1003f144     Cooking.obj
 0002:00000148       ?minFError$initializer$@_VecMathTests@aos@shdfnd@physx@@3P6AXXZA 1003f148     BVHStructureBuilder.obj
 0002:0000014c       ?maxFError$initializer$@_VecMathTests@aos@shdfnd@physx@@3P6AXXZA 1003f14c     BVHStructureBuilder.obj
 0002:00000150       ?minV3Error$initializer$@_VecMathTests@aos@shdfnd@physx@@3P6AXXZA 1003f150     BVHStructureBuilder.obj
 0002:00000154       ?maxV3Error$initializer$@_VecMathTests@aos@shdfnd@physx@@3P6AXXZA 1003f154     BVHStructureBuilder.obj
 0002:00000158       ?minV4Error$initializer$@_VecMathTests@aos@shdfnd@physx@@3P6AXXZA 1003f158     BVHStructureBuilder.obj
 0002:0000015c       ?maxV4Error$initializer$@_VecMathTests@aos@shdfnd@physx@@3P6AXXZA 1003f15c     BVHStructureBuilder.obj
 0002:00000160       ?minFError$initializer$@_VecMathTests@aos@shdfnd@physx@@3P6AXXZA 1003f160     RTreeCooking.obj
 0002:00000164       ?maxFError$initializer$@_VecMathTests@aos@shdfnd@physx@@3P6AXXZA 1003f164     RTreeCooking.obj
 0002:00000168       ?minV3Error$initializer$@_VecMathTests@aos@shdfnd@physx@@3P6AXXZA 1003f168     RTreeCooking.obj
 0002:0000016c       ?maxV3Error$initializer$@_VecMathTests@aos@shdfnd@physx@@3P6AXXZA 1003f16c     RTreeCooking.obj
 0002:00000170       ?minV4Error$initializer$@_VecMathTests@aos@shdfnd@physx@@3P6AXXZA 1003f170     RTreeCooking.obj
 0002:00000174       ?maxV4Error$initializer$@_VecMathTests@aos@shdfnd@physx@@3P6AXXZA 1003f174     RTreeCooking.obj
 0002:00000178       ?minFError$initializer$@_VecMathTests@aos@shdfnd@physx@@3P6AXXZA 1003f178     MeshBuilder.obj
 0002:0000017c       ?maxFError$initializer$@_VecMathTests@aos@shdfnd@physx@@3P6AXXZA 1003f17c     MeshBuilder.obj
 0002:00000180       ?minV3Error$initializer$@_VecMathTests@aos@shdfnd@physx@@3P6AXXZA 1003f180     MeshBuilder.obj
 0002:00000184       ?maxV3Error$initializer$@_VecMathTests@aos@shdfnd@physx@@3P6AXXZA 1003f184     MeshBuilder.obj
 0002:00000188       ?minV4Error$initializer$@_VecMathTests@aos@shdfnd@physx@@3P6AXXZA 1003f188     MeshBuilder.obj
 0002:0000018c       ?maxV4Error$initializer$@_VecMathTests@aos@shdfnd@physx@@3P6AXXZA 1003f18c     MeshBuilder.obj
 0002:00000190       ?minFError$initializer$@_VecMathTests@aos@shdfnd@physx@@3P6AXXZA 1003f190     TriangleMeshBuilder.obj
 0002:00000194       ?maxFError$initializer$@_VecMathTests@aos@shdfnd@physx@@3P6AXXZA 1003f194     TriangleMeshBuilder.obj
 0002:00000198       ?minV3Error$initializer$@_VecMathTests@aos@shdfnd@physx@@3P6AXXZA 1003f198     TriangleMeshBuilder.obj
 0002:0000019c       ?maxV3Error$initializer$@_VecMathTests@aos@shdfnd@physx@@3P6AXXZA 1003f19c     TriangleMeshBuilder.obj
 0002:000001a0       ?minV4Error$initializer$@_VecMathTests@aos@shdfnd@physx@@3P6AXXZA 1003f1a0     TriangleMeshBuilder.obj
 0002:000001a4       ?maxV4Error$initializer$@_VecMathTests@aos@shdfnd@physx@@3P6AXXZA 1003f1a4     TriangleMeshBuilder.obj
 0002:000001a8       ?minFError$initializer$@_VecMathTests@aos@shdfnd@physx@@3P6AXXZA 1003f1a8     BigConvexDataBuilder.obj
 0002:000001ac       ?maxFError$initializer$@_VecMathTests@aos@shdfnd@physx@@3P6AXXZA 1003f1ac     BigConvexDataBuilder.obj
 0002:000001b0       ?minV3Error$initializer$@_VecMathTests@aos@shdfnd@physx@@3P6AXXZA 1003f1b0     BigConvexDataBuilder.obj
 0002:000001b4       ?maxV3Error$initializer$@_VecMathTests@aos@shdfnd@physx@@3P6AXXZA 1003f1b4     BigConvexDataBuilder.obj
 0002:000001b8       ?minV4Error$initializer$@_VecMathTests@aos@shdfnd@physx@@3P6AXXZA 1003f1b8     BigConvexDataBuilder.obj
 0002:000001bc       ?maxV4Error$initializer$@_VecMathTests@aos@shdfnd@physx@@3P6AXXZA 1003f1bc     BigConvexDataBuilder.obj
 0002:000001c0       ?minFError$initializer$@_VecMathTests@aos@shdfnd@physx@@3P6AXXZA 1003f1c0     ConvexHullBuilder.obj
 0002:000001c4       ?maxFError$initializer$@_VecMathTests@aos@shdfnd@physx@@3P6AXXZA 1003f1c4     ConvexHullBuilder.obj
 0002:000001c8       ?minV3Error$initializer$@_VecMathTests@aos@shdfnd@physx@@3P6AXXZA 1003f1c8     ConvexHullBuilder.obj
 0002:000001cc       ?maxV3Error$initializer$@_VecMathTests@aos@shdfnd@physx@@3P6AXXZA 1003f1cc     ConvexHullBuilder.obj
 0002:000001d0       ?minV4Error$initializer$@_VecMathTests@aos@shdfnd@physx@@3P6AXXZA 1003f1d0     ConvexHullBuilder.obj
 0002:000001d4       ?maxV4Error$initializer$@_VecMathTests@aos@shdfnd@physx@@3P6AXXZA 1003f1d4     ConvexHullBuilder.obj
 0002:000001d8       ?minFError$initializer$@_VecMathTests@aos@shdfnd@physx@@3P6AXXZA 1003f1d8     ConvexHullUtils.obj
 0002:000001dc       ?maxFError$initializer$@_VecMathTests@aos@shdfnd@physx@@3P6AXXZA 1003f1dc     ConvexHullUtils.obj
 0002:000001e0       ?minV3Error$initializer$@_VecMathTests@aos@shdfnd@physx@@3P6AXXZA 1003f1e0     ConvexHullUtils.obj
 0002:000001e4       ?maxV3Error$initializer$@_VecMathTests@aos@shdfnd@physx@@3P6AXXZA 1003f1e4     ConvexHullUtils.obj
 0002:000001e8       ?minV4Error$initializer$@_VecMathTests@aos@shdfnd@physx@@3P6AXXZA 1003f1e8     ConvexHullUtils.obj
 0002:000001ec       ?maxV4Error$initializer$@_VecMathTests@aos@shdfnd@physx@@3P6AXXZA 1003f1ec     ConvexHullUtils.obj
 0002:000001f0       ?MAXDOT_MINANG$initializer$@local@@3P6AXXZA 1003f1f0     ConvexHullUtils.obj
 0002:000001f4       ?minFError$initializer$@_VecMathTests@aos@shdfnd@physx@@3P6AXXZA 1003f1f4     ConvexMeshBuilder.obj
 0002:000001f8       ?maxFError$initializer$@_VecMathTests@aos@shdfnd@physx@@3P6AXXZA 1003f1f8     ConvexMeshBuilder.obj
 0002:000001fc       ?minV3Error$initializer$@_VecMathTests@aos@shdfnd@physx@@3P6AXXZA 1003f1fc     ConvexMeshBuilder.obj
 0002:00000200       ?maxV3Error$initializer$@_VecMathTests@aos@shdfnd@physx@@3P6AXXZA 1003f200     ConvexMeshBuilder.obj
 0002:00000204       ?minV4Error$initializer$@_VecMathTests@aos@shdfnd@physx@@3P6AXXZA 1003f204     ConvexMeshBuilder.obj
 0002:00000208       ?maxV4Error$initializer$@_VecMathTests@aos@shdfnd@physx@@3P6AXXZA 1003f208     ConvexMeshBuilder.obj
 0002:0000020c       ?MAXDOT_MINANG$initializer$@local@@3P6AXXZA 1003f20c     QuickHullConvexHullLib.obj
 0002:00000210       ?minFError$initializer$@_VecMathTests@aos@shdfnd@physx@@3P6AXXZA 1003f210     VolumeIntegration.obj
 0002:00000214       ?maxFError$initializer$@_VecMathTests@aos@shdfnd@physx@@3P6AXXZA 1003f214     VolumeIntegration.obj
 0002:00000218       ?minV3Error$initializer$@_VecMathTests@aos@shdfnd@physx@@3P6AXXZA 1003f218     VolumeIntegration.obj
 0002:0000021c       ?maxV3Error$initializer$@_VecMathTests@aos@shdfnd@physx@@3P6AXXZA 1003f21c     VolumeIntegration.obj
 0002:00000220       ?minV4Error$initializer$@_VecMathTests@aos@shdfnd@physx@@3P6AXXZA 1003f220     VolumeIntegration.obj
 0002:00000224       ?maxV4Error$initializer$@_VecMathTests@aos@shdfnd@physx@@3P6AXXZA 1003f224     VolumeIntegration.obj
 0002:00000700       ?minus1w@?A0x0751ac65@aos@shdfnd@physx@@3QBMB 1003f700     Cooking.obj
 0002:00000710       ?gMaskXYZ@internalWindowsSimd@aos@shdfnd@physx@@3QBIB 1003f710     Cooking.obj
 0002:00001140       ?minus1w@?A0x49db96b8@aos@shdfnd@physx@@3QBMB 10040140     BVHStructureBuilder.obj
 0002:00001150       ?gMaskXYZ@internalWindowsSimd@aos@shdfnd@physx@@3QBIB 10040150     BVHStructureBuilder.obj
 0002:00001290       ?minus1w@?A0xd8688c42@aos@shdfnd@physx@@3QBMB 10040290     RTreeCooking.obj
 0002:000012a0       ?gMaskXYZ@internalWindowsSimd@aos@shdfnd@physx@@3QBIB 100402a0     RTreeCooking.obj
 0002:000012e0       ?stopAtTrisPerPage@physx@@3QBIB 100402e0     RTreeCooking.obj
 0002:0000131c       ?stopAtTrisPerLeaf@physx@@3QBIB 1004031c     RTreeCooking.obj
 0002:00001b30       ?minus1w@?A0x34f4c3d3@aos@shdfnd@physx@@3QBMB 10040b30     MeshBuilder.obj
 0002:00001b40       ?gMaskXYZ@internalWindowsSimd@aos@shdfnd@physx@@3QBIB 10040b40     MeshBuilder.obj
 0002:00001b60       ?minus1w@?A0x70666363@aos@shdfnd@physx@@3QBMB 10040b60     TriangleMeshBuilder.obj
 0002:00001b70       ?gMaskXYZ@internalWindowsSimd@aos@shdfnd@physx@@3QBIB 10040b70     TriangleMeshBuilder.obj
 0002:000024d0       ?minus1w@?A0xb8e0b48a@aos@shdfnd@physx@@3QBMB 100414d0     BigConvexDataBuilder.obj
 0002:000024e0       ?gMaskXYZ@internalWindowsSimd@aos@shdfnd@physx@@3QBIB 100414e0     BigConvexDataBuilder.obj
 0002:00002610       ?minus1w@?A0x9491edbf@aos@shdfnd@physx@@3QBMB 10041610     ConvexHullBuilder.obj
 0002:00002620       ?gMaskXYZ@internalWindowsSimd@aos@shdfnd@physx@@3QBIB 10041620     ConvexHullBuilder.obj
 0002:00002c80       ?minus1w@?A0x856b0860@aos@shdfnd@physx@@3QBMB 10041c80     ConvexHullUtils.obj
 0002:00002c90       ?gMaskXYZ@internalWindowsSimd@aos@shdfnd@physx@@3QBIB 10041c90     ConvexHullUtils.obj
 0002:00003090       ?minus1w@?A0x5a354dea@aos@shdfnd@physx@@3QBMB 10042090     ConvexMeshBuilder.obj
 0002:000030a0       ?gMaskXYZ@internalWindowsSimd@aos@shdfnd@physx@@3QBIB 100420a0     ConvexMeshBuilder.obj
 0002:00003ab0       ?minus1w@?A0x157ffe9b@aos@shdfnd@physx@@3QBMB 10042ab0     VolumeIntegration.obj
 0002:00003ac0       ?gMaskXYZ@internalWindowsSimd@aos@shdfnd@physx@@3QBIB 10042ac0     VolumeIntegration.obj
 0002:00003c80       _NaN                       10042c80     MSVCRTD:ftol3.obj
 0002:00003c84       _onept5                    10042c84     MSVCRTD:ftol3.obj
 0002:00003c88       _Int32ToUInt32             10042c88     MSVCRTD:ftol3.obj
 0002:00003d44       ?_RTC_errlist@@3QBQBDB     10042d44     MSVCRTD:userapi.obj
 0002:00003e04       ?_RTC_ErrorMessages@@3QBQBDB 10042e04     MSVCRTD:error.obj
 0002:00003e1c       ?_RTC_NoFalsePositives@@3QBHB 10042e1c     MSVCRTD:error.obj
 0002:00003e34       ?stack_premsg@@3QBDB       10042e34     MSVCRTD:error.obj
 0002:00003e50       ?stack_postmsg@@3QBDB      10042e50     MSVCRTD:error.obj
 0002:00003e64       ?uninit_premsg@@3QBDB      10042e64     MSVCRTD:error.obj
 0002:00003e74       ?uninit_postmsg@@3QBDB     10042e74     MSVCRTD:error.obj
 0002:000043b0       ?mspdbName@@3QB_WB         100433b0     MSVCRTD:pdblkup.obj
 0002:000043d4       ?debugCrtFileName@@3QB_WB  100433d4     MSVCRTD:pdblkup.obj
 0002:0000451c       ?dllExt@?1??GetPdbDllPathFromFilePath@@YAHPB_WPA_WI@Z@4QB_WB 1004351c     MSVCRTD:pdblkup.obj
 0002:00004524       ?mspdbFilename@?1??GetPdbDllPathFromFilePath@@YAHPB_WPA_WI@Z@4QB_WB 10043524     MSVCRTD:pdblkup.obj
 0002:00004564       _GS_ExceptionPointers      10043564     MSVCRTD:gs_report.obj
 0002:000049a4       __RTC_InitBase.rtc$IMZ     100439a4     Adjacencies.obj
 0002:000049a8       __RTC_InitBase.rtc$IMZ     100439a8     Cooking.obj
 0002:000049ac       __RTC_InitBase.rtc$IMZ     100439ac     CookingUtils.obj
 0002:000049b0       __RTC_InitBase.rtc$IMZ     100439b0     EdgeList.obj
 0002:000049b4       __RTC_InitBase.rtc$IMZ     100439b4     MeshCleaner.obj
 0002:000049b8       __RTC_InitBase.rtc$IMZ     100439b8     Quantizer.obj
 0002:000049bc       __RTC_InitBase.rtc$IMZ     100439bc     BVHStructureBuilder.obj
 0002:000049c0       __RTC_InitBase.rtc$IMZ     100439c0     HeightFieldCooking.obj
 0002:000049c4       __RTC_InitBase.rtc$IMZ     100439c4     RTreeCooking.obj
 0002:000049c8       __RTC_InitBase.rtc$IMZ     100439c8     MeshBuilder.obj
 0002:000049cc       __RTC_InitBase.rtc$IMZ     100439cc     TriangleMeshBuilder.obj
 0002:000049d0       __RTC_InitBase.rtc$IMZ     100439d0     BigConvexDataBuilder.obj
 0002:000049d4       __RTC_InitBase.rtc$IMZ     100439d4     ConvexHullBuilder.obj
 0002:000049d8       __RTC_InitBase.rtc$IMZ     100439d8     ConvexHullLib.obj
 0002:000049dc       __RTC_InitBase.rtc$IMZ     100439dc     ConvexHullUtils.obj
 0002:000049e0       __RTC_InitBase.rtc$IMZ     100439e0     ConvexMeshBuilder.obj
 0002:000049e4       __RTC_InitBase.rtc$IMZ     100439e4     ConvexPolygonsBuilder.obj
 0002:000049e8       __RTC_InitBase.rtc$IMZ     100439e8     QuickHullConvexHullLib.obj
 0002:000049ec       __RTC_InitBase.rtc$IMZ     100439ec     VolumeIntegration.obj
 0002:000049f0       __RTC_InitBase.rtc$IMZ     100439f0     WindowsCookingDelayLoadHook.obj
 0002:000049fc       __RTC_Shutdown.rtc$TMZ     100439fc     Adjacencies.obj
 0002:00004a00       __RTC_Shutdown.rtc$TMZ     10043a00     Cooking.obj
 0002:00004a04       __RTC_Shutdown.rtc$TMZ     10043a04     CookingUtils.obj
 0002:00004a08       __RTC_Shutdown.rtc$TMZ     10043a08     EdgeList.obj
 0002:00004a0c       __RTC_Shutdown.rtc$TMZ     10043a0c     MeshCleaner.obj
 0002:00004a10       __RTC_Shutdown.rtc$TMZ     10043a10     Quantizer.obj
 0002:00004a14       __RTC_Shutdown.rtc$TMZ     10043a14     BVHStructureBuilder.obj
 0002:00004a18       __RTC_Shutdown.rtc$TMZ     10043a18     HeightFieldCooking.obj
 0002:00004a1c       __RTC_Shutdown.rtc$TMZ     10043a1c     RTreeCooking.obj
 0002:00004a20       __RTC_Shutdown.rtc$TMZ     10043a20     MeshBuilder.obj
 0002:00004a24       __RTC_Shutdown.rtc$TMZ     10043a24     TriangleMeshBuilder.obj
 0002:00004a28       __RTC_Shutdown.rtc$TMZ     10043a28     BigConvexDataBuilder.obj
 0002:00004a2c       __RTC_Shutdown.rtc$TMZ     10043a2c     ConvexHullBuilder.obj
 0002:00004a30       __RTC_Shutdown.rtc$TMZ     10043a30     ConvexHullLib.obj
 0002:00004a34       __RTC_Shutdown.rtc$TMZ     10043a34     ConvexHullUtils.obj
 0002:00004a38       __RTC_Shutdown.rtc$TMZ     10043a38     ConvexMeshBuilder.obj
 0002:00004a3c       __RTC_Shutdown.rtc$TMZ     10043a3c     ConvexPolygonsBuilder.obj
 0002:00004a40       __RTC_Shutdown.rtc$TMZ     10043a40     QuickHullConvexHullLib.obj
 0002:00004a44       __RTC_Shutdown.rtc$TMZ     10043a44     VolumeIntegration.obj
 0002:00004a48       __RTC_Shutdown.rtc$TMZ     10043a48     WindowsCookingDelayLoadHook.obj
 0002:00004a50       __sehtable$?dllmain_crt_process_attach@@YAHQAUHINSTANCE__@@QAX@Z 10043a50     MSVCRTD:dll_dllmain.obj
 0002:00004a70       __sehtable$?dllmain_crt_process_detach@@YAH_N@Z 10043a70     MSVCRTD:dll_dllmain.obj
 0002:00004a90       __sehtable$?dllmain_dispatch@@YAHQAUHINSTANCE__@@KQAX@Z 10043a90     MSVCRTD:dll_dllmain.obj
 0002:00004ab0       __sehtable$___scrt_is_nonwritable_in_current_image 10043ab0     MSVCRTD:utility.obj
 0002:00004ad0       __sehtable$?notify_debugger@@YAXABUtagEXCEPTION_VISUALCPP_DEBUG_INFO@@@Z 10043ad0     MSVCRTD:error.obj
 0002:00005a70       .edata                     10044a70     PhysXCooking_32.exp
 0002:00005a98       rgpv                       10044a98     PhysXCooking_32.exp
 0002:00005c88       rgszName                   10044c88     PhysXCooking_32.exp
 0002:00005e78       rgwOrd                     10044e78     PhysXCooking_32.exp
 0002:00005f70       szName                     10044f70     PhysXCooking_32.exp
 0002:00005f84       $N00001                    10044f84     PhysXCooking_32.exp
 0002:00005fb1       $N00002                    10044fb1     PhysXCooking_32.exp
 0002:00005fd7       $N00003                    10044fd7     PhysXCooking_32.exp
 0002:00006010       $N00004                    10045010     PhysXCooking_32.exp
 0002:00006035       $N00005                    10045035     PhysXCooking_32.exp
 0002:00006060       $N00006                    10045060     PhysXCooking_32.exp
 0002:0000607f       $N00007                    1004507f     PhysXCooking_32.exp
 0002:000060b1       $N00008                    100450b1     PhysXCooking_32.exp
 0002:000060c9       $N00009                    100450c9     PhysXCooking_32.exp
 0002:000060e8       $N00010                    100450e8     PhysXCooking_32.exp
 0002:0000612f       $N00011                    1004512f     PhysXCooking_32.exp
 0002:00006156       $N00012                    10045156     PhysXCooking_32.exp
 0002:0000617b       $N00013                    1004517b     PhysXCooking_32.exp
 0002:000061a8       $N00014                    100451a8     PhysXCooking_32.exp
 0002:000061d3       $N00015                    100451d3     PhysXCooking_32.exp
 0002:00006203       $N00016                    10045203     PhysXCooking_32.exp
 0002:00006227       $N00017                    10045227     PhysXCooking_32.exp
 0002:00006250       $N00018                    10045250     PhysXCooking_32.exp
 0002:00006274       $N00019                    10045274     PhysXCooking_32.exp
 0002:00006292       $N00020                    10045292     PhysXCooking_32.exp
 0002:000062c6       $N00021                    100452c6     PhysXCooking_32.exp
 0002:000062ee       $N00022                    100452ee     PhysXCooking_32.exp
 0002:00006314       $N00023                    10045314     PhysXCooking_32.exp
 0002:0000633c       $N00024                    1004533c     PhysXCooking_32.exp
 0002:00006354       $N00025                    10045354     PhysXCooking_32.exp
 0002:00006378       $N00026                    10045378     PhysXCooking_32.exp
 0002:00006396       $N00027                    10045396     PhysXCooking_32.exp
 0002:000063b4       $N00028                    100453b4     PhysXCooking_32.exp
 0002:000063d3       $N00029                    100453d3     PhysXCooking_32.exp
 0002:00006406       $N00030                    10045406     PhysXCooking_32.exp
 0002:0000643b       $N00031                    1004543b     PhysXCooking_32.exp
 0002:0000646c       $N00032                    1004546c     PhysXCooking_32.exp
 0002:0000649b       $N00033                    1004549b     PhysXCooking_32.exp
 0002:000064c5       $N00034                    100454c5     PhysXCooking_32.exp
 0002:000064ea       $N00035                    100454ea     PhysXCooking_32.exp
 0002:00006518       $N00036                    10045518     PhysXCooking_32.exp
 0002:00006544       $N00037                    10045544     PhysXCooking_32.exp
 0002:00006571       $N00038                    10045571     PhysXCooking_32.exp
 0002:0000659c       $N00039                    1004559c     PhysXCooking_32.exp
 0002:000065ca       $N00040                    100455ca     PhysXCooking_32.exp
 0002:000065fd       $N00041                    100455fd     PhysXCooking_32.exp
 0002:0000662e       $N00042                    1004562e     PhysXCooking_32.exp
 0002:0000665d       $N00043                    1004565d     PhysXCooking_32.exp
 0002:0000668c       $N00044                    1004568c     PhysXCooking_32.exp
 0002:000066b5       $N00045                    100456b5     PhysXCooking_32.exp
 0002:000066d1       $N00046                    100456d1     PhysXCooking_32.exp
 0002:000066fa       $N00047                    100456fa     PhysXCooking_32.exp
 0002:0000671d       $N00048                    1004571d     PhysXCooking_32.exp
 0002:00006745       $N00049                    10045745     PhysXCooking_32.exp
 0002:00006775       $N00050                    10045775     PhysXCooking_32.exp
 0002:0000679b       $N00051                    1004579b     PhysXCooking_32.exp
 0002:000067c8       $N00052                    100457c8     PhysXCooking_32.exp
 0002:000067f2       $N00053                    100457f2     PhysXCooking_32.exp
 0002:0000681e       $N00054                    1004581e     PhysXCooking_32.exp
 0002:00006846       $N00055                    10045846     PhysXCooking_32.exp
 0002:00006873       $N00056                    10045873     PhysXCooking_32.exp
 0002:0000689b       $N00057                    1004589b     PhysXCooking_32.exp
 0002:000068c2       $N00058                    100458c2     PhysXCooking_32.exp
 0002:000068ee       $N00059                    100458ee     PhysXCooking_32.exp
 0002:00006915       $N00060                    10045915     PhysXCooking_32.exp
 0002:0000694e       $N00061                    1004594e     PhysXCooking_32.exp
 0002:00006977       $N00062                    10045977     PhysXCooking_32.exp
 0002:000069aa       $N00063                    100459aa     PhysXCooking_32.exp
 0002:000069de       $N00064                    100459de     PhysXCooking_32.exp
 0002:00006a18       $N00065                    10045a18     PhysXCooking_32.exp
 0002:00006a5e       $N00066                    10045a5e     PhysXCooking_32.exp
 0002:00006aac       $N00067                    10045aac     PhysXCooking_32.exp
 0002:00006ade       $N00068                    10045ade     PhysXCooking_32.exp
 0002:00006b11       $N00069                    10045b11     PhysXCooking_32.exp
 0002:00006b46       $N00070                    10045b46     PhysXCooking_32.exp
 0002:00006b6c       $N00071                    10045b6c     PhysXCooking_32.exp
 0002:00006bb2       $N00072                    10045bb2     PhysXCooking_32.exp
 0002:00006bf7       $N00073                    10045bf7     PhysXCooking_32.exp
 0002:00006c4e       $N00074                    10045c4e     PhysXCooking_32.exp
 0002:00006c94       $N00075                    10045c94     PhysXCooking_32.exp
 0002:00006cbe       $N00076                    10045cbe     PhysXCooking_32.exp
 0002:00006cec       $N00077                    10045cec     PhysXCooking_32.exp
 0002:00006d3a       $N00078                    10045d3a     PhysXCooking_32.exp
 0002:00006de4       $N00079                    10045de4     PhysXCooking_32.exp
 0002:00006e40       $N00080                    10045e40     PhysXCooking_32.exp
 0002:00006e6b       $N00081                    10045e6b     PhysXCooking_32.exp
 0002:00006e96       $N00082                    10045e96     PhysXCooking_32.exp
 0002:00006eca       $N00083                    10045eca     PhysXCooking_32.exp
 0002:00006ef2       $N00084                    10045ef2     PhysXCooking_32.exp
 0002:00006f2d       $N00085                    10045f2d     PhysXCooking_32.exp
 0002:00006f58       $N00086                    10045f58     PhysXCooking_32.exp
 0002:00006f89       $N00087                    10045f89     PhysXCooking_32.exp
 0002:00006fd4       $N00088                    10045fd4     PhysXCooking_32.exp
 0002:00007005       $N00089                    10046005     PhysXCooking_32.exp
 0002:0000703c       $N00090                    1004603c     PhysXCooking_32.exp
 0002:00007073       $N00091                    10046073     PhysXCooking_32.exp
 0002:000070ae       $N00092                    100460ae     PhysXCooking_32.exp
 0002:000070f0       $N00093                    100460f0     PhysXCooking_32.exp
 0002:0000711e       $N00094                    1004611e     PhysXCooking_32.exp
 0002:00007195       $N00095                    10046195     PhysXCooking_32.exp
 0002:000071f0       $N00096                    100461f0     PhysXCooking_32.exp
 0002:0000721b       $N00097                    1004621b     PhysXCooking_32.exp
 0002:0000724e       $N00098                    1004624e     PhysXCooking_32.exp
 0002:00007286       $N00099                    10046286     PhysXCooking_32.exp
 0002:000072c2       $N00100                    100462c2     PhysXCooking_32.exp
 0002:000072f6       $N00101                    100462f6     PhysXCooking_32.exp
 0002:00007322       $N00102                    10046322     PhysXCooking_32.exp
 0002:0000734e       $N00103                    1004634e     PhysXCooking_32.exp
 0002:00007377       $N00104                    10046377     PhysXCooking_32.exp
 0002:000073a1       $N00105                    100463a1     PhysXCooking_32.exp
 0002:000073cd       $N00106                    100463cd     PhysXCooking_32.exp
 0002:000073ec       $N00107                    100463ec     PhysXCooking_32.exp
 0002:00007426       $N00108                    10046426     PhysXCooking_32.exp
 0002:00007456       $N00109                    10046456     PhysXCooking_32.exp
 0002:00007487       $N00110                    10046487     PhysXCooking_32.exp
 0002:000074c7       $N00111                    100464c7     PhysXCooking_32.exp
 0002:000074f3       $N00112                    100464f3     PhysXCooking_32.exp
 0002:00007516       $N00113                    10046516     PhysXCooking_32.exp
 0002:00007544       $N00114                    10046544     PhysXCooking_32.exp
 0002:00007575       $N00115                    10046575     PhysXCooking_32.exp
 0002:0000759a       $N00116                    1004659a     PhysXCooking_32.exp
 0002:000075c6       $N00117                    100465c6     PhysXCooking_32.exp
 0002:000075ed       $N00118                    100465ed     PhysXCooking_32.exp
 0002:0000760c       $N00119                    1004660c     PhysXCooking_32.exp
 0002:00007650       $N00120                    10046650     PhysXCooking_32.exp
 0002:0000768c       $N00121                    1004668c     PhysXCooking_32.exp
 0002:000076c8       $N00122                    100466c8     PhysXCooking_32.exp
 0002:000076f9       $N00123                    100466f9     PhysXCooking_32.exp
 0002:00007709       $N00124                    10046709     PhysXCooking_32.exp
 0002:000078b0       .idata$6                   100468b0     kernel32:KERNEL32.dll
 0002:00007988       .idata$6                   10046988     vcruntimed:VCRUNTIME140D.dll
 0002:00007b80       .idata$6                   10046b80     ucrtd:ucrtbased.dll
 0003:000003a0       ?_ignore@?6??Init@AdjacenciesBuilder@physx@@QAE_NABUADJACENCIESCREATE@3@@Z@4_NA 100473a0     Adjacencies.obj
 0003:000003a1       ?_ignore@?BK@??Init@AdjacenciesBuilder@physx@@QAE_NABUADJACENCIESCREATE@3@@Z@4_NA 100473a1     Adjacencies.obj
 0003:000003a2       ?_ignore@?BL@??Init@AdjacenciesBuilder@physx@@QAE_NABUADJACENCIESCREATE@3@@Z@4_NA 100473a2     Adjacencies.obj
 0003:000003a3       ?_ignore@?BM@??Init@AdjacenciesBuilder@physx@@QAE_NABUADJACENCIESCREATE@3@@Z@4_NA 100473a3     Adjacencies.obj
 0003:000003b0       ?maxV3Error@_VecMathTests@aos@shdfnd@physx@@3T__m128@@B 100473b0     Cooking.obj
 0003:000003c0       ?minFError@_VecMathTests@aos@shdfnd@physx@@3T__m128@@B 100473c0     Cooking.obj
 0003:000003d0       ?maxV4Error@_VecMathTests@aos@shdfnd@physx@@3T__m128@@B 100473d0     Cooking.obj
 0003:000003e0       ?minV4Error@_VecMathTests@aos@shdfnd@physx@@3T__m128@@B 100473e0     Cooking.obj
 0003:000003f0       ?minV3Error@_VecMathTests@aos@shdfnd@physx@@3T__m128@@B 100473f0     Cooking.obj
 0003:00000400       ?maxFError@_VecMathTests@aos@shdfnd@physx@@3T__m128@@B 10047400     Cooking.obj
 0003:00000412       ?_ignore@?BB@??cookConvexMeshInternal@Cooking@physx@@ABE_NABVPxConvexMeshDesc@3@AAVConvexMeshBuilder@3@PAVConvexHullLib@3@PAW4Enum@PxConvexMeshCookingResult@3@@Z@4_NA 10047412     Cooking.obj
 0003:00000413       ?_ignore@?2??PxCreateCooking@@9@4_NA 10047413     Cooking.obj
 0003:00000417       ?_ignore@?CA@??computeActiveEdges@EdgeListBuilder@Gu@physx@@AAE_NIPBIPBGPBVPxVec3@4@M@Z@4_NA 10047417     EdgeList.obj
 0003:00000418       ?_ignore@?DD@??computeActiveEdges@EdgeListBuilder@Gu@physx@@AAE_NIPBIPBGPBVPxVec3@4@M@Z@4_NA 10047418     EdgeList.obj
 0003:00000419       ?_ignore@?DL@??computeActiveEdges@EdgeListBuilder@Gu@physx@@AAE_NIPBIPBGPBVPxVec3@4@M@Z@4_NA 10047419     EdgeList.obj
 0003:0000041a       ?_ignore@?HJ@??computeActiveEdges@EdgeListBuilder@Gu@physx@@AAE_NIPBIPBGPBVPxVec3@4@M@Z@4_NA 1004741a     EdgeList.obj
 0003:0000041b       ?_ignore@?IA@??computeActiveEdges@EdgeListBuilder@Gu@physx@@AAE_NIPBIPBGPBVPxVec3@4@M@Z@4_NA 1004741b     EdgeList.obj
 0003:0000041c       ?_ignore@?JI@??computeActiveEdges@EdgeListBuilder@Gu@physx@@AAE_NIPBIPBGPBVPxVec3@4@M@Z@4_NA 1004741c     EdgeList.obj
 0003:0000041d       ?_ignore@?2???0MeshCleaner@physx@@QAE@IPBVPxVec3@2@IPBIM@Z@4_NA 1004741d     MeshCleaner.obj
 0003:0000041e       ?_ignore@?L@???0MeshCleaner@physx@@QAE@IPBVPxVec3@2@IPBIM@Z@4_NA 1004741e     MeshCleaner.obj
 0003:0000041f       ?_ignore@?CJ@???0MeshCleaner@physx@@QAE@IPBVPxVec3@2@IPBIM@Z@4_NA 1004741f     MeshCleaner.obj
 0003:00000430       ?maxV3Error@_VecMathTests@aos@shdfnd@physx@@3T__m128@@B 10047430     BVHStructureBuilder.obj
 0003:00000440       ?minFError@_VecMathTests@aos@shdfnd@physx@@3T__m128@@B 10047440     BVHStructureBuilder.obj
 0003:00000450       ?maxV4Error@_VecMathTests@aos@shdfnd@physx@@3T__m128@@B 10047450     BVHStructureBuilder.obj
 0003:00000460       ?minV4Error@_VecMathTests@aos@shdfnd@physx@@3T__m128@@B 10047460     BVHStructureBuilder.obj
 0003:00000470       ?minV3Error@_VecMathTests@aos@shdfnd@physx@@3T__m128@@B 10047470     BVHStructureBuilder.obj
 0003:00000480       ?maxFError@_VecMathTests@aos@shdfnd@physx@@3T__m128@@B 10047480     BVHStructureBuilder.obj
 0003:00000491       ?_ignore@?9??flatten@@YAXABVNodeAllocator@Gu@physx@@PAUBVHNode@34@@Z@4_NA 10047491     BVHStructureBuilder.obj
 0003:00000492       ?_ignore@?N@??flatten@@YAXABVNodeAllocator@Gu@physx@@PAUBVHNode@34@@Z@4_NA 10047492     BVHStructureBuilder.obj
 0003:00000493       ?_ignore@?2??loadFromDesc@BVHStructureBuilder@physx@@QAE_NABVPxBVHStructureDesc@3@@Z@4_NA 10047493     BVHStructureBuilder.obj
 0003:00000494       ?_ignore@?5??loadFromDesc@BVHStructureBuilder@physx@@QAE_NABVPxBVHStructureDesc@3@@Z@4_NA 10047494     BVHStructureBuilder.obj
 0003:00000495       ?_ignore@?6??loadFromDesc@BVHStructureBuilder@physx@@QAE_NABVPxBVHStructureDesc@3@@Z@4_NA 10047495     BVHStructureBuilder.obj
 0003:000004a0       ?maxV3Error@_VecMathTests@aos@shdfnd@physx@@3T__m128@@B 100474a0     RTreeCooking.obj
 0003:000004b0       ?minFError@_VecMathTests@aos@shdfnd@physx@@3T__m128@@B 100474b0     RTreeCooking.obj
 0003:000004c0       ?maxV4Error@_VecMathTests@aos@shdfnd@physx@@3T__m128@@B 100474c0     RTreeCooking.obj
 0003:000004d0       ?minV4Error@_VecMathTests@aos@shdfnd@physx@@3T__m128@@B 100474d0     RTreeCooking.obj
 0003:000004e0       ?minV3Error@_VecMathTests@aos@shdfnd@physx@@3T__m128@@B 100474e0     RTreeCooking.obj
 0003:000004f0       ?maxFError@_VecMathTests@aos@shdfnd@physx@@3T__m128@@B 100474f0     RTreeCooking.obj
 0003:0000050e       ?_ignore@?9??buildFromTriangles@RTreeCooker@physx@@SAXAAURTree@Gu@3@PBVPxVec3@3@IPBGPBIIAAV?$Array@IVNamedAllocator@shdfnd@physx@@@shdfnd@3@PAURemapCallback@23@MW4Enum@PxMeshCookingHint@3@@Z@4_NA 1004750e     RTreeCooking.obj
 0003:0000052a       ?_ignore@?M@??buildFromBounds@physx@@YAXAAURTree@Gu@2@PBUPxBounds3V@2@IAAV?$Array@IVNamedAllocator@shdfnd@physx@@@shdfnd@2@PAURemapCallback@RTreeCooker@2@AAT__m128@@4MW4Enum@PxMeshCookingHint@2@@Z@4_NA 1004752a     RTreeCooking.obj
 0003:0000052b       ?_ignore@?N@??buildFromBounds@physx@@YAXAAURTree@Gu@2@PBUPxBounds3V@2@IAAV?$Array@IVNamedAllocator@shdfnd@physx@@@shdfnd@2@PAURemapCallback@RTreeCooker@2@AAT__m128@@4MW4Enum@PxMeshCookingHint@2@@Z@4_NA 1004752b     RTreeCooking.obj
 0003:0000052c       ?_ignore@?BG@??buildFromBounds@physx@@YAXAAURTree@Gu@2@PBUPxBounds3V@2@IAAV?$Array@IVNamedAllocator@shdfnd@physx@@@shdfnd@2@PAURemapCallback@RTreeCooker@2@AAT__m128@@4MW4Enum@PxMeshCookingHint@2@@Z@4_NA 1004752c     RTreeCooking.obj
 0003:0000052d       ?_ignore@?BM@??buildFromBounds@physx@@YAXAAURTree@Gu@2@PBUPxBounds3V@2@IAAV?$Array@IVNamedAllocator@shdfnd@physx@@@shdfnd@2@PAURemapCallback@RTreeCooker@2@AAT__m128@@4MW4Enum@PxMeshCookingHint@2@@Z@4_NA 1004752d     RTreeCooking.obj
 0003:0000052e       ?_ignore@?CB@??buildFromBounds@physx@@YAXAAURTree@Gu@2@PBUPxBounds3V@2@IAAV?$Array@IVNamedAllocator@shdfnd@physx@@@shdfnd@2@PAURemapCallback@RTreeCooker@2@AAT__m128@@4MW4Enum@PxMeshCookingHint@2@@Z@4_NA 1004752e     RTreeCooking.obj
 0003:0000052f       ?_ignore@?CC@??buildFromBounds@physx@@YAXAAURTree@Gu@2@PBUPxBounds3V@2@IAAV?$Array@IVNamedAllocator@shdfnd@physx@@@shdfnd@2@PAURemapCallback@RTreeCooker@2@AAT__m128@@4MW4Enum@PxMeshCookingHint@2@@Z@4_NA 1004752f     RTreeCooking.obj
 0003:00000530       ?_ignore@?CD@??buildFromBounds@physx@@YAXAAURTree@Gu@2@PBUPxBounds3V@2@IAAV?$Array@IVNamedAllocator@shdfnd@physx@@@shdfnd@2@PAURemapCallback@RTreeCooker@2@AAT__m128@@4MW4Enum@PxMeshCookingHint@2@@Z@4_NA 10047530     RTreeCooking.obj
 0003:00000531       ?_ignore@?CE@??buildFromBounds@physx@@YAXAAURTree@Gu@2@PBUPxBounds3V@2@IAAV?$Array@IVNamedAllocator@shdfnd@physx@@@shdfnd@2@PAURemapCallback@RTreeCooker@2@AAT__m128@@4MW4Enum@PxMeshCookingHint@2@@Z@4_NA 10047531     RTreeCooking.obj
 0003:00000560       ?maxV3Error@_VecMathTests@aos@shdfnd@physx@@3T__m128@@B 10047560     MeshBuilder.obj
 0003:00000570       ?minFError@_VecMathTests@aos@shdfnd@physx@@3T__m128@@B 10047570     MeshBuilder.obj
 0003:00000580       ?maxV4Error@_VecMathTests@aos@shdfnd@physx@@3T__m128@@B 10047580     MeshBuilder.obj
 0003:00000590       ?minV4Error@_VecMathTests@aos@shdfnd@physx@@3T__m128@@B 10047590     MeshBuilder.obj
 0003:000005a0       ?minV3Error@_VecMathTests@aos@shdfnd@physx@@3T__m128@@B 100475a0     MeshBuilder.obj
 0003:000005b0       ?maxFError@_VecMathTests@aos@shdfnd@physx@@3T__m128@@B 100475b0     MeshBuilder.obj
 0003:000005c0       ?maxV3Error@_VecMathTests@aos@shdfnd@physx@@3T__m128@@B 100475c0     TriangleMeshBuilder.obj
 0003:000005d0       ?minFError@_VecMathTests@aos@shdfnd@physx@@3T__m128@@B 100475d0     TriangleMeshBuilder.obj
 0003:000005e0       ?maxV4Error@_VecMathTests@aos@shdfnd@physx@@3T__m128@@B 100475e0     TriangleMeshBuilder.obj
 0003:000005f0       ?minV4Error@_VecMathTests@aos@shdfnd@physx@@3T__m128@@B 100475f0     TriangleMeshBuilder.obj
 0003:00000600       ?minV3Error@_VecMathTests@aos@shdfnd@physx@@3T__m128@@B 10047600     TriangleMeshBuilder.obj
 0003:00000610       ?maxFError@_VecMathTests@aos@shdfnd@physx@@3T__m128@@B 10047610     TriangleMeshBuilder.obj
 0003:00000629       ?_ignore@?2??cleanMesh@TriangleMeshBuilder@physx@@QAE_N_NPAW4Enum@PxTriangleMeshCookingResult@3@@Z@4_NA 10047629     TriangleMeshBuilder.obj
 0003:0000062a       ?_ignore@?CG@??cleanMesh@TriangleMeshBuilder@physx@@QAE_N_NPAW4Enum@PxTriangleMeshCookingResult@3@@Z@4_NA 1004762a     TriangleMeshBuilder.obj
 0003:0000062b       ?_ignore@?CN@??cleanMesh@TriangleMeshBuilder@physx@@QAE_N_NPAW4Enum@PxTriangleMeshCookingResult@3@@Z@4_NA 1004762b     TriangleMeshBuilder.obj
 0003:0000062c       ?_ignore@?4??createSharedEdgeData@TriangleMeshBuilder@physx@@QAEX_N0@Z@4_NA 1004762c     TriangleMeshBuilder.obj
 0003:0000062d       ?_ignore@?5??createSharedEdgeData@TriangleMeshBuilder@physx@@QAEX_N0@Z@4_NA 1004762d     TriangleMeshBuilder.obj
 0003:0000062e       ?_ignore@?P@??createSharedEdgeData@TriangleMeshBuilder@physx@@QAEX_N0@Z@4_NA 1004762e     TriangleMeshBuilder.obj
 0003:0000062f       ?_ignore@?CF@??createSharedEdgeData@TriangleMeshBuilder@physx@@QAEX_N0@Z@4_NA 1004762f     TriangleMeshBuilder.obj
 0003:00000630       ?_ignore@?CG@??createSharedEdgeData@TriangleMeshBuilder@physx@@QAEX_N0@Z@4_NA 10047630     TriangleMeshBuilder.obj
 0003:00000631       ?_ignore@?CH@??createSharedEdgeData@TriangleMeshBuilder@physx@@QAEX_N0@Z@4_NA 10047631     TriangleMeshBuilder.obj
 0003:00000632       ?_ignore@?5??recordTriangleIndices@TriangleMeshBuilder@physx@@QAEXXZ@4_NA 10047632     TriangleMeshBuilder.obj
 0003:00000633       ?_ignore@?6??recordTriangleIndices@TriangleMeshBuilder@physx@@QAEXXZ@4_NA 10047633     TriangleMeshBuilder.obj
 0003:00000634       ?_ignore@?2??createGRBData@TriangleMeshBuilder@physx@@QAEXXZ@4_NA 10047634     TriangleMeshBuilder.obj
 0003:00000635       ?_ignore@?5??createGRBMidPhaseAndData@TriangleMeshBuilder@physx@@QAEXI@Z@4_NA 10047635     TriangleMeshBuilder.obj
 0003:00000636       ?_ignore@?6??createGRBMidPhaseAndData@TriangleMeshBuilder@physx@@QAEXI@Z@4_NA 10047636     TriangleMeshBuilder.obj
 0003:00000637       ?_ignore@?9??createGRBMidPhaseAndData@TriangleMeshBuilder@physx@@QAEXI@Z@4_NA 10047637     TriangleMeshBuilder.obj
 0003:00000638       ?_ignore@?BF@??importMesh@TriangleMeshBuilder@physx@@IAE_NABVPxTriangleMeshDesc@3@ABUPxCookingParams@3@PAW4Enum@PxTriangleMeshCookingResult@3@_N@Z@4_NA 10047638     TriangleMeshBuilder.obj
 0003:00000639       ?_ignore@?CD@??importMesh@TriangleMeshBuilder@physx@@IAE_NABVPxTriangleMeshDesc@3@ABUPxCookingParams@3@PAW4Enum@PxTriangleMeshCookingResult@3@_N@Z@4_NA 10047639     TriangleMeshBuilder.obj
 0003:0000063a       ?_ignore@?5??checkMeshIndicesSize@TriangleMeshBuilder@physx@@QAEXXZ@4_NA 1004763a     TriangleMeshBuilder.obj
 0003:0000063b       ?_ignore@?2??saveMidPhaseStructure@BV4TriangleMeshBuilder@physx@@UBEXAAVPxOutputStream@3@_N@Z@4_NA 1004763b     TriangleMeshBuilder.obj
 0003:0000063c       ?_ignore@?2??createMidPhaseStructure@BV32TriangleMeshBuilder@physx@@SAXABUPxCookingParams@3@AAVTriangleMeshData@Gu@3@AAVBV32Tree@63@@Z@4_NA 1004763c     TriangleMeshBuilder.obj
 0003:0000063d       ?_ignore@?2??saveMidPhaseStructure@BV32TriangleMeshBuilder@physx@@SAXPAVBV32Tree@Gu@3@AAVPxOutputStream@3@_N@Z@4_NA 1004763d     TriangleMeshBuilder.obj
 0003:00000643       ?_ignore@?2??createMidPhaseStructure@RTreeTriangleMeshBuilder@physx@@UAEXXZ@4_NA 10047643     TriangleMeshBuilder.obj
 0003:00000660       ?maxV3Error@_VecMathTests@aos@shdfnd@physx@@3T__m128@@B 10047660     BigConvexDataBuilder.obj
 0003:00000670       ?minFError@_VecMathTests@aos@shdfnd@physx@@3T__m128@@B 10047670     BigConvexDataBuilder.obj
 0003:00000680       ?maxV4Error@_VecMathTests@aos@shdfnd@physx@@3T__m128@@B 10047680     BigConvexDataBuilder.obj
 0003:00000690       ?minV4Error@_VecMathTests@aos@shdfnd@physx@@3T__m128@@B 10047690     BigConvexDataBuilder.obj
 0003:000006a0       ?minV3Error@_VecMathTests@aos@shdfnd@physx@@3T__m128@@B 100476a0     BigConvexDataBuilder.obj
 0003:000006b0       ?maxFError@_VecMathTests@aos@shdfnd@physx@@3T__m128@@B 100476b0     BigConvexDataBuilder.obj
 0003:000006c0       ?_ignore@?6??computeValencies@BigConvexDataBuilder@physx@@QAE_NABVConvexHullBuilder@3@@Z@4_NA 100476c0     BigConvexDataBuilder.obj
 0003:000006c1       ?_ignore@?7??computeValencies@BigConvexDataBuilder@physx@@QAE_NABVConvexHullBuilder@3@@Z@4_NA 100476c1     BigConvexDataBuilder.obj
 0003:000006c2       ?_ignore@?N@??precompute@BigConvexDataBuilder@physx@@QAE_NI@Z@4_NA 100476c2     BigConvexDataBuilder.obj
 0003:000006c3       ?_ignore@?O@??precompute@BigConvexDataBuilder@physx@@QAE_NI@Z@4_NA 100476c3     BigConvexDataBuilder.obj
 0003:000006d0       ?maxV3Error@_VecMathTests@aos@shdfnd@physx@@3T__m128@@B 100476d0     ConvexHullBuilder.obj
 0003:000006e0       ?minFError@_VecMathTests@aos@shdfnd@physx@@3T__m128@@B 100476e0     ConvexHullBuilder.obj
 0003:000006f0       ?maxV4Error@_VecMathTests@aos@shdfnd@physx@@3T__m128@@B 100476f0     ConvexHullBuilder.obj
 0003:00000700       ?minV4Error@_VecMathTests@aos@shdfnd@physx@@3T__m128@@B 10047700     ConvexHullBuilder.obj
 0003:00000710       ?minV3Error@_VecMathTests@aos@shdfnd@physx@@3T__m128@@B 10047710     ConvexHullBuilder.obj
 0003:00000720       ?maxFError@_VecMathTests@aos@shdfnd@physx@@3T__m128@@B 10047720     ConvexHullBuilder.obj
 0003:00000730       ?_ignore@?2??init@ConvexHullBuilder@physx@@QAE_NIPBVPxVec3@3@PBIIIPBUPxHullPolygon@3@_NPAVConvexHullLib@3@@Z@4_NA 10047730     ConvexHullBuilder.obj
 0003:00000731       ?_ignore@?3??init@ConvexHullBuilder@physx@@QAE_NIPBVPxVec3@3@PBIIIPBUPxHullPolygon@3@_NPAVConvexHullLib@3@@Z@4_NA 10047731     ConvexHullBuilder.obj
 0003:00000732       ?_ignore@?4??init@ConvexHullBuilder@physx@@QAE_NIPBVPxVec3@3@PBIIIPBUPxHullPolygon@3@_NPAVConvexHullLib@3@@Z@4_NA 10047732     ConvexHullBuilder.obj
 0003:00000733       ?_ignore@?5??init@ConvexHullBuilder@physx@@QAE_NIPBVPxVec3@3@PBIIIPBUPxHullPolygon@3@_NPAVConvexHullLib@3@@Z@4_NA 10047733     ConvexHullBuilder.obj
 0003:00000734       ?_ignore@?6??init@ConvexHullBuilder@physx@@QAE_NIPBVPxVec3@3@PBIIIPBUPxHullPolygon@3@_NPAVConvexHullLib@3@@Z@4_NA 10047734     ConvexHullBuilder.obj
 0003:00000735       ?_ignore@?P@??init@ConvexHullBuilder@physx@@QAE_NIPBVPxVec3@3@PBIIIPBUPxHullPolygon@3@_NPAVConvexHullLib@3@@Z@4_NA 10047735     ConvexHullBuilder.obj
 0003:00000736       ?_ignore@?4??save@ConvexHullBuilder@physx@@QBE_NAAVPxOutputStream@3@_N@Z@4_NA 10047736     ConvexHullBuilder.obj
 0003:00000737       ?_ignore@?2??copy@ConvexHullBuilder@physx@@QAE_NAAUConvexHullData@Gu@3@AAI@Z@4_NA 10047737     ConvexHullBuilder.obj
 0003:00000738       ?_ignore@?4??copy@ConvexHullBuilder@physx@@QAE_NAAUConvexHullData@Gu@3@AAI@Z@4_NA 10047738     ConvexHullBuilder.obj
 0003:00000739       ?_ignore@?5??copy@ConvexHullBuilder@physx@@QAE_NAAUConvexHullData@Gu@3@AAI@Z@4_NA 10047739     ConvexHullBuilder.obj
 0003:0000073a       ?_ignore@?6??copy@ConvexHullBuilder@physx@@QAE_NAAUConvexHullData@Gu@3@AAI@Z@4_NA 1004773a     ConvexHullBuilder.obj
 0003:0000073b       ?_ignore@?7??copy@ConvexHullBuilder@physx@@QAE_NAAUConvexHullData@Gu@3@AAI@Z@4_NA 1004773b     ConvexHullBuilder.obj
 0003:0000073c       ?_ignore@?8??copy@ConvexHullBuilder@physx@@QAE_NAAUConvexHullData@Gu@3@AAI@Z@4_NA 1004773c     ConvexHullBuilder.obj
 0003:0000073d       ?_ignore@?9??copy@ConvexHullBuilder@physx@@QAE_NAAUConvexHullData@Gu@3@AAI@Z@4_NA 1004773d     ConvexHullBuilder.obj
 0003:0000073e       ?_ignore@?L@??copy@ConvexHullBuilder@physx@@QAE_NAAUConvexHullData@Gu@3@AAI@Z@4_NA 1004773e     ConvexHullBuilder.obj
 0003:0000073f       ?_ignore@?M@??copy@ConvexHullBuilder@physx@@QAE_NAAUConvexHullData@Gu@3@AAI@Z@4_NA 1004773f     ConvexHullBuilder.obj
 0003:00000740       ?_ignore@?N@??createEdgeList@ConvexHullBuilder@physx@@QAE_N_NI@Z@4_NA 10047740     ConvexHullBuilder.obj
 0003:00000741       ?_ignore@?O@??createEdgeList@ConvexHullBuilder@physx@@QAE_N_NI@Z@4_NA 10047741     ConvexHullBuilder.obj
 0003:00000742       ?_ignore@?2??shiftConvexMeshDesc@ConvexHullLib@physx@@IAEXAAVPxConvexMeshDesc@3@@Z@4_NA 10047742     ConvexHullLib.obj
 0003:00000743       ?_ignore@?BF@??swapLargestFace@ConvexHullLib@physx@@IAEXAAVPxConvexMeshDesc@3@@Z@4_NA 10047743     ConvexHullLib.obj
 0003:00000750       ?maxV3Error@_VecMathTests@aos@shdfnd@physx@@3T__m128@@B 10047750     ConvexHullUtils.obj
 0003:00000760       ?minFError@_VecMathTests@aos@shdfnd@physx@@3T__m128@@B 10047760     ConvexHullUtils.obj
 0003:00000770       ?maxV4Error@_VecMathTests@aos@shdfnd@physx@@3T__m128@@B 10047770     ConvexHullUtils.obj
 0003:00000780       ?MAXDOT_MINANG@local@@3MB  10047780     ConvexHullUtils.obj
 0003:00000790       ?minV4Error@_VecMathTests@aos@shdfnd@physx@@3T__m128@@B 10047790     ConvexHullUtils.obj
 0003:000007a0       ?minV3Error@_VecMathTests@aos@shdfnd@physx@@3T__m128@@B 100477a0     ConvexHullUtils.obj
 0003:000007b0       ?maxFError@_VecMathTests@aos@shdfnd@physx@@3T__m128@@B 100477b0     ConvexHullUtils.obj
 0003:000007d1       ?_ignore@?2??computeOBBSIMD@local@@YAXIPBT__m128@@AAT3@ABT3@1@Z@4_NA 100477d1     ConvexHullUtils.obj
 0003:000007d2       ?_ignore@?L@??assertIntact@ConvexHull@physx@@QBE_NM@Z@4_NA 100477d2     ConvexHullUtils.obj
 0003:000007d3       ?_ignore@?O@??assertIntact@ConvexHull@physx@@QBE_NM@Z@4_NA 100477d3     ConvexHullUtils.obj
 0003:000007d4       ?_ignore@?P@??assertIntact@ConvexHull@physx@@QBE_NM@Z@4_NA 100477d4     ConvexHullUtils.obj
 0003:000007d5       ?_ignore@?BA@??assertIntact@ConvexHull@physx@@QBE_NM@Z@4_NA 100477d5     ConvexHullUtils.obj
 0003:000007d6       ?_ignore@?BF@??assertIntact@ConvexHull@physx@@QBE_NM@Z@4_NA 100477d6     ConvexHullUtils.obj
 0003:000007d7       ?_ignore@?2??convexHullCrop@physx@@YAPAVConvexHull@2@ABV32@ABVPxPlane@2@M@Z@4_NA 100477d7     ConvexHullUtils.obj
 0003:000007d8       ?_ignore@?BF@??convexHullCrop@physx@@YAPAVConvexHull@2@ABV32@ABVPxPlane@2@M@Z@4_NA 100477d8     ConvexHullUtils.obj
 0003:000007d9       ?_ignore@?BJ@??convexHullCrop@physx@@YAPAVConvexHull@2@ABV32@ABVPxPlane@2@M@Z@4_NA 100477d9     ConvexHullUtils.obj
 0003:000007da       ?_ignore@?CG@??convexHullCrop@physx@@YAPAVConvexHull@2@ABV32@ABVPxPlane@2@M@Z@4_NA 100477da     ConvexHullUtils.obj
 0003:000007db       ?_ignore@?DC@??convexHullCrop@physx@@YAPAVConvexHull@2@ABV32@ABVPxPlane@2@M@Z@4_NA 100477db     ConvexHullUtils.obj
 0003:000007dc       ?_ignore@?EC@??convexHullCrop@physx@@YAPAVConvexHull@2@ABV32@ABVPxPlane@2@M@Z@4_NA 100477dc     ConvexHullUtils.obj
 0003:000007dd       ?_ignore@?ED@??convexHullCrop@physx@@YAPAVConvexHull@2@ABV32@ABVPxPlane@2@M@Z@4_NA 100477dd     ConvexHullUtils.obj
 0003:000007de       ?_ignore@?EL@??convexHullCrop@physx@@YAPAVConvexHull@2@ABV32@ABVPxPlane@2@M@Z@4_NA 100477de     ConvexHullUtils.obj
 0003:000007df       ?_ignore@?FC@??convexHullCrop@physx@@YAPAVConvexHull@2@ABV32@ABVPxPlane@2@M@Z@4_NA 100477df     ConvexHullUtils.obj
 0003:000007e0       ?_ignore@?FD@??convexHullCrop@physx@@YAPAVConvexHull@2@ABV32@ABVPxPlane@2@M@Z@4_NA 100477e0     ConvexHullUtils.obj
 0003:000007e1       ?_ignore@?FE@??convexHullCrop@physx@@YAPAVConvexHull@2@ABV32@ABVPxPlane@2@M@Z@4_NA 100477e1     ConvexHullUtils.obj
 0003:000007e2       ?_ignore@?GO@??convexHullCrop@physx@@YAPAVConvexHull@2@ABV32@ABVPxPlane@2@M@Z@4_NA 100477e2     ConvexHullUtils.obj
 0003:000007f0       ?maxV3Error@_VecMathTests@aos@shdfnd@physx@@3T__m128@@B 100477f0     ConvexMeshBuilder.obj
 0003:00000800       ?minFError@_VecMathTests@aos@shdfnd@physx@@3T__m128@@B 10047800     ConvexMeshBuilder.obj
 0003:00000810       ?maxV4Error@_VecMathTests@aos@shdfnd@physx@@3T__m128@@B 10047810     ConvexMeshBuilder.obj
 0003:00000820       ?minV4Error@_VecMathTests@aos@shdfnd@physx@@3T__m128@@B 10047820     ConvexMeshBuilder.obj
 0003:00000830       ?minV3Error@_VecMathTests@aos@shdfnd@physx@@3T__m128@@B 10047830     ConvexMeshBuilder.obj
 0003:00000840       ?maxFError@_VecMathTests@aos@shdfnd@physx@@3T__m128@@B 10047840     ConvexMeshBuilder.obj
 0003:00000850       ?_ignore@?O@??computeHullPolygons@ConvexMeshBuilder@physx@@QAE_NABIPBVPxVec3@3@0PBIAAVPxAllocatorCallback@3@AAIAAPAV43@4AAPAI4AAPAUPxHullPolygon@3@@Z@4_NA 10047850     ConvexMeshBuilder.obj
 0003:00000851       ?_ignore@?L@??findLineStrip@@YA_NAAV?$Array@IVNamedAllocator@shdfnd@physx@@@shdfnd@physx@@ABV?$Array@VPair@@VNamedAllocator@shdfnd@physx@@@34@@Z@4_NA 10047851     ConvexPolygonsBuilder.obj
 0003:00000852       ?_ignore@?BC@??findLineStrip@@YA_NAAV?$Array@IVNamedAllocator@shdfnd@physx@@@shdfnd@physx@@ABV?$Array@VPair@@VNamedAllocator@shdfnd@physx@@@34@@Z@4_NA 10047852     ConvexPolygonsBuilder.obj
 0003:00000853       ?_ignore@?6??checkRedundantVertices@@YAXAAIAAV?$Array@IVNamedAllocator@shdfnd@physx@@@shdfnd@physx@@ABVConvexPolygonsBuilder@4@11@Z@4_NA 10047853     ConvexPolygonsBuilder.obj
 0003:00000854       ?_ignore@?2??extractHullPolygons@@YA_NAAIAAV?$Array@IVNamedAllocator@shdfnd@physx@@@shdfnd@physx@@ABVConvexPolygonsBuilder@4@PAV234@1@Z@4_NA 10047854     ConvexPolygonsBuilder.obj
 0003:00000855       ?_ignore@?CB@??extractHullPolygons@@YA_NAAIAAV?$Array@IVNamedAllocator@shdfnd@physx@@@shdfnd@physx@@ABVConvexPolygonsBuilder@4@PAV234@1@Z@4_NA 10047855     ConvexPolygonsBuilder.obj
 0003:00000856       ?_ignore@?2??computeHullPolygons@ConvexPolygonsBuilder@physx@@QAE_NABIPBVPxVec3@3@0PBI@Z@4_NA 10047856     ConvexPolygonsBuilder.obj
 0003:00000857       ?_ignore@?3??computeHullPolygons@ConvexPolygonsBuilder@physx@@QAE_NABIPBVPxVec3@3@0PBI@Z@4_NA 10047857     ConvexPolygonsBuilder.obj
 0003:00000858       ?_ignore@?6??computeHullPolygons@ConvexPolygonsBuilder@physx@@QAE_NABIPBVPxVec3@3@0PBI@Z@4_NA 10047858     ConvexPolygonsBuilder.obj
 0003:00000859       ?_ignore@?7??computeHullPolygons@ConvexPolygonsBuilder@physx@@QAE_NABIPBVPxVec3@3@0PBI@Z@4_NA 10047859     ConvexPolygonsBuilder.obj
 0003:0000085a       ?_ignore@?8??computeHullPolygons@ConvexPolygonsBuilder@physx@@QAE_NABIPBVPxVec3@3@0PBI@Z@4_NA 1004785a     ConvexPolygonsBuilder.obj
 0003:0000085b       ?_ignore@?9??computeHullPolygons@ConvexPolygonsBuilder@physx@@QAE_NABIPBVPxVec3@3@0PBI@Z@4_NA 1004785b     ConvexPolygonsBuilder.obj
 0003:0000085c       ?_ignore@?BA@??createPolygonData@ConvexPolygonsBuilder@physx@@AAE_NXZ@4_NA 1004785c     ConvexPolygonsBuilder.obj
 0003:0000085d       ?_ignore@?BF@??createPolygonData@ConvexPolygonsBuilder@physx@@AAE_NXZ@4_NA 1004785d     ConvexPolygonsBuilder.obj
 0003:0000085e       ?_ignore@?BI@??createPolygonData@ConvexPolygonsBuilder@physx@@AAE_NXZ@4_NA 1004785e     ConvexPolygonsBuilder.obj
 0003:0000085f       ?_ignore@?BP@??createPolygonData@ConvexPolygonsBuilder@physx@@AAE_NXZ@4_NA 1004785f     ConvexPolygonsBuilder.obj
 0003:00000860       ?_ignore@?CK@??createPolygonData@ConvexPolygonsBuilder@physx@@AAE_NXZ@4_NA 10047860     ConvexPolygonsBuilder.obj
 0003:00000861       ?_ignore@?DI@??createPolygonData@ConvexPolygonsBuilder@physx@@AAE_NXZ@4_NA 10047861     ConvexPolygonsBuilder.obj
 0003:00000862       ?_ignore@?BC@??createTrianglesFromPolygons@ConvexPolygonsBuilder@physx@@AAE_NXZ@4_NA 10047862     ConvexPolygonsBuilder.obj
 0003:00000868       ?MAXDOT_MINANG@local@@3MB  10047868     QuickHullConvexHullLib.obj
 0003:0000086f       ?_ignore@?2??getOppositeFaceDistance@QuickHullHalfEdge@local@@QBEMXZ@4_NA 1004786f     QuickHullConvexHullLib.obj
 0003:00000870       ?_ignore@?3??getOppositeFaceDistance@QuickHullHalfEdge@local@@QBEMXZ@4_NA 10047870     QuickHullConvexHullLib.obj
 0003:00000871       ?_ignore@?BI@??mergeAdjacentFace@QuickHullFace@local@@QAE_NPAUQuickHullHalfEdge@3@AAV?$Array@PAUQuickHullFace@local@@VNamedAllocator@shdfnd@physx@@@shdfnd@physx@@@Z@4_NA 10047871     QuickHullConvexHullLib.obj
 0003:00000872       ?_ignore@?4??checkFaceConsistency@QuickHullFace@local@@QAE_NXZ@4_NA 10047872     QuickHullConvexHullLib.obj
 0003:00000873       ?_ignore@?7??checkFaceConsistency@QuickHullFace@local@@QAE_NXZ@4_NA 10047873     QuickHullConvexHullLib.obj
 0003:00000874       ?_ignore@?8??checkFaceConsistency@QuickHullFace@local@@QAE_NXZ@4_NA 10047874     QuickHullConvexHullLib.obj
 0003:00000875       ?_ignore@?9??checkFaceConsistency@QuickHullFace@local@@QAE_NXZ@4_NA 10047875     QuickHullConvexHullLib.obj
 0003:00000876       ?_ignore@?L@??checkFaceConsistency@QuickHullFace@local@@QAE_NXZ@4_NA 10047876     QuickHullConvexHullLib.obj
 0003:00000877       ?_ignore@?M@??checkFaceConsistency@QuickHullFace@local@@QAE_NXZ@4_NA 10047877     QuickHullConvexHullLib.obj
 0003:00000878       ?_ignore@?2??preallocate@QuickHull@local@@QAEXI@Z@4_NA 10047878     QuickHullConvexHullLib.obj
 0003:00000879       ?_ignore@?2??parseInputVertices@QuickHull@local@@QAEXPBVPxVec3@physx@@I@Z@4_NA 10047879     QuickHullConvexHullLib.obj
 0003:0000087a       ?_ignore@?3??parseInputVertices@QuickHull@local@@QAEXPBVPxVec3@physx@@I@Z@4_NA 1004787a     QuickHullConvexHullLib.obj
 0003:0000087b       ?_ignore@?2??addSimplex@QuickHull@local@@IAEXPAUQuickHullVertex@3@_N@Z@4_NA 1004787b     QuickHullConvexHullLib.obj
 0003:0000087c       ?_ignore@?5??addPointToFace@QuickHull@local@@IAEXAAUQuickHullFace@3@PAUQuickHullVertex@3@M@Z@4_NA 1004787c     QuickHullConvexHullLib.obj
 0003:0000087d       ?_ignore@?2??removeEyePointFromFace@QuickHull@local@@IAEXAAUQuickHullFace@3@PBUQuickHullVertex@3@@Z@4_NA 1004787d     QuickHullConvexHullLib.obj
 0003:0000087e       ?_ignore@?7??postMergeHull@QuickHull@local@@IAEXXZ@4_NA 1004787e     QuickHullConvexHullLib.obj
 0003:0000087f       ?_ignore@?BE@??buildHull@QuickHull@local@@QAE?AW4Enum@QuickHullResult@3@XZ@4_NA 1004787f     QuickHullConvexHullLib.obj
 0003:00000880       ?_ignore@?N@??addPointToHull@QuickHull@local@@IAE_NPBUQuickHullVertex@3@AAUQuickHullFace@3@AA_N@Z@4_NA 10047880     QuickHullConvexHullLib.obj
 0003:00000881       ?_ignore@?CI@??doAdjacentMerge@QuickHull@local@@IAE_NAAUQuickHullFace@3@_NAA_N@Z@4_NA 10047881     QuickHullConvexHullLib.obj
 0003:00000882       ?_ignore@?BA@??doPostAdjacentMerge@QuickHull@local@@IAE_NAAUQuickHullFace@3@M@Z@4_NA 10047882     QuickHullConvexHullLib.obj
 0003:00000883       ?_ignore@?BA@??canMergeFaces@QuickHull@local@@IAE_NABUQuickHullHalfEdge@3@@Z@4_NA 10047883     QuickHullConvexHullLib.obj
 0003:00000884       ?_ignore@?CE@??createConvexHull@QuickHullConvexHullLib@physx@@UAE?AW4Enum@PxConvexMeshCookingResult@3@XZ@4_NA 10047884     QuickHullConvexHullLib.obj
 0003:00000885       ?_ignore@?BI@??expandHull@QuickHullConvexHullLib@physx@@IAE?AW4Enum@PxConvexMeshCookingResult@3@XZ@4_NA 10047885     QuickHullConvexHullLib.obj
 0003:00000886       ?_ignore@?BJ@??expandHullOBB@QuickHullConvexHullLib@physx@@IAE?AW4Enum@PxConvexMeshCookingResult@3@XZ@4_NA 10047886     QuickHullConvexHullLib.obj
 0003:00000887       ?_ignore@?4??createEdgeList@QuickHullConvexHullLib@physx@@UAE_NIPBEPAPAEPAPAG2@Z@4_NA 10047887     QuickHullConvexHullLib.obj
 0003:00000888       ?_ignore@?5??createEdgeList@QuickHullConvexHullLib@physx@@UAE_NIPBEPAPAEPAPAG2@Z@4_NA 10047888     QuickHullConvexHullLib.obj
 0003:00000889       ?_ignore@?6??createEdgeList@QuickHullConvexHullLib@physx@@UAE_NIPBEPAPAEPAPAG2@Z@4_NA 10047889     QuickHullConvexHullLib.obj
 0003:0000088a       ?_ignore@?7??createEdgeList@QuickHullConvexHullLib@physx@@UAE_NIPBEPAPAEPAPAG2@Z@4_NA 1004788a     QuickHullConvexHullLib.obj
 0003:0000088b       ?_ignore@?L@??createEdgeList@QuickHullConvexHullLib@physx@@UAE_NIPBEPAPAEPAPAG2@Z@4_NA 1004788b     QuickHullConvexHullLib.obj
 0003:0000088c       ?_ignore@?CD@??fillConvexMeshDescFromQuickHull@QuickHullConvexHullLib@physx@@IAEXAAVPxConvexMeshDesc@3@@Z@4_NA 1004788c     QuickHullConvexHullLib.obj
 0003:0000088d       ?_ignore@?2??fillConvexMeshDescFromCroppedHull@QuickHullConvexHullLib@physx@@IAEXAAVPxConvexMeshDesc@3@@Z@4_NA 1004788d     QuickHullConvexHullLib.obj
 0003:0000088e       ?_ignore@?9??fillConvexMeshDescFromCroppedHull@QuickHullConvexHullLib@physx@@IAEXAAVPxConvexMeshDesc@3@@Z@4_NA 1004788e     QuickHullConvexHullLib.obj
 0003:000008b0       ?maxV3Error@_VecMathTests@aos@shdfnd@physx@@3T__m128@@B 100478b0     VolumeIntegration.obj
 0003:000008c0       ?minFError@_VecMathTests@aos@shdfnd@physx@@3T__m128@@B 100478c0     VolumeIntegration.obj
 0003:000008d0       ?maxV4Error@_VecMathTests@aos@shdfnd@physx@@3T__m128@@B 100478d0     VolumeIntegration.obj
 0003:000008e0       ?minV4Error@_VecMathTests@aos@shdfnd@physx@@3T__m128@@B 100478e0     VolumeIntegration.obj
 0003:000008f0       ?minV3Error@_VecMathTests@aos@shdfnd@physx@@3T__m128@@B 100478f0     VolumeIntegration.obj
 0003:00000900       ?maxFError@_VecMathTests@aos@shdfnd@physx@@3T__m128@@B 10047900     VolumeIntegration.obj
 0003:00000913       ?_ignore@?4??computeVolumeIntegralsSIMD@VolumeIntegratorEberly@?A0x157ffe9b@physx@@QAE_NAAUPxIntegrals@4@ABVPxVec3@4@@Z@4_NA 10047913     VolumeIntegration.obj
 0003:00000914       ?gCookingDelayLoadHook@@3PBVPxDelayLoadHook@physx@@B 10047914     WindowsCookingDelayLoadHook.obj
 0003:0000093c       ?init@?1??_RTC_InitBase@@9@4_NA 1004793c     MSVCRTD:init.obj
 0003:00000948       ?__proc_attached@@3HA      10047948     MSVCRTD:dll_dllmain.obj
 0003:0000094c       ?_RTC_ErrorReportFunc@@3P6AHHPBDH00ZZA 1004794c     MSVCRTD:userapi.obj
 0003:00000950       ?_RTC_ErrorReportFuncW@@3P6AHHPB_WH00ZZA 10047950     MSVCRTD:userapi.obj
 0003:00000970       ?is_initialized_as_dll@@3_NA 10047970     MSVCRTD:utility.obj
 0003:00000971       ?module_local_atexit_table_initialized@@3_NA 10047971     MSVCRTD:utility.obj
 0003:00000974       ?module_local_atexit_table@@3U_onexit_table_t@@A 10047974     MSVCRTD:utility.obj
 0003:00000980       ?module_local_at_quick_exit_table@@3U_onexit_table_t@@A 10047980     MSVCRTD:utility.obj
 0003:00000998       ?mspdb@@3PAUHINSTANCE__@@A 10047998     MSVCRTD:pdblkup.obj
 0003:0000099c       ?alreadyTried@?1??GetPdbDll@@YAPAUHINSTANCE__@@XZ@4_NA 1004799c     MSVCRTD:pdblkup.obj
 0003:0000099d       ?PDBOK@?1??_RTC_GetSrcLine@@YAHPAEPA_WKPAH1K@Z@4_NA 1004799d     MSVCRTD:pdblkup.obj
 0003:000009a0       _GS_ExceptionRecord        100479a0     MSVCRTD:gs_report.obj
 0003:000009f0       _GS_ContextRecord          100479f0     MSVCRTD:gs_report.obj
 0004:000000a0       $R000000                   100480a0     PhysXCooking.res
 0004:000003d0       $R000330                   100483d0     PhysXCooking.res
